BL51 BANKED LINKER/LOCATER V6.22.4.0                                                    05/26/2025  16:52:39  PAGE 1


BL51 BANKED LINKER/LOCATER V6.22.4.0, INVOKED BY:
C:\KEIL_V5\C51\BIN\BL51.EXE .\Release\Objects\STARTUP.obj, .\Release\Objects\system.obj, ..\..\User\lib\tk_simplify_algo
>> rithm_V1.0.0.LIB, .\Release\Objects\tk_set.obj, .\Release\Objects\my_gpio.obj, .\Release\Objects\tmr0.obj, .\Release\
>> Objects\tmr1.obj, .\Release\Objects\tmr2.obj, .\Release\Objects\uart0.obj, .\Release\Objects\adc.obj, .\Release\Objec
>> ts\flash.obj, .\Release\Objects\aip1302.obj, .\Release\Objects\uart1.obj, .\Release\Objects\key_driver.obj, .\Release
>> \Objects\main.obj, .\Release\Objects\fun_info.obj, .\Release\Objects\send_data.obj, .\Release\Objects\pin_level_scan.
>> obj, .\Release\Objects\speed_scan.obj, .\Release\Objects\engine_speed_scan.obj, .\Release\Objects\mileage.obj, .\Rele
>> ase\Objects\instruction.obj, .\Release\Objects\ad_key.obj, .\Release\Objects\fuel_capacity.obj, .\Release\Objects\tem
>> p_of_water.obj, .\Release\Objects\battery.obj, .\Release\Objects\touch_key.obj TO .\Release\Objects\Project PRINT (.\
>> Release\Listings\Project.m51) RAMSIZE (256) CODE (0X0000-0X3EEF) XDATA (0X6000-0X66FF)


MEMORY MODEL: LARGE


INPUT MODULES INCLUDED:
  .\Release\Objects\STARTUP.obj (?C_STARTUP)
  .\Release\Objects\system.obj (SYSTEM)
  .\Release\Objects\tk_set.obj (TK_SET)
  .\Release\Objects\my_gpio.obj (MY_GPIO)
  .\Release\Objects\tmr0.obj (TMR0)
  .\Release\Objects\tmr1.obj (TMR1)
  .\Release\Objects\tmr2.obj (TMR2)
  .\Release\Objects\uart0.obj (UART0)
  .\Release\Objects\adc.obj (ADC)
  .\Release\Objects\flash.obj (FLASH)
  .\Release\Objects\aip1302.obj (AIP1302)
  .\Release\Objects\uart1.obj (UART1)
  .\Release\Objects\key_driver.obj (KEY_DRIVER)
  .\Release\Objects\main.obj (MAIN)
  .\Release\Objects\fun_info.obj (FUN_INFO)
  .\Release\Objects\send_data.obj (SEND_DATA)
  .\Release\Objects\pin_level_scan.obj (PIN_LEVEL_SCAN)
  .\Release\Objects\speed_scan.obj (SPEED_SCAN)
  .\Release\Objects\engine_speed_scan.obj (ENGINE_SPEED_SCAN)
  .\Release\Objects\mileage.obj (MILEAGE)
  .\Release\Objects\instruction.obj (INSTRUCTION)
  .\Release\Objects\ad_key.obj (AD_KEY)
  .\Release\Objects\fuel_capacity.obj (FUEL_CAPACITY)
  .\Release\Objects\temp_of_water.obj (TEMP_OF_WATER)
  .\Release\Objects\battery.obj (BATTERY)
  .\Release\Objects\touch_key.obj (TOUCH_KEY)
  ..\..\User\lib\tk_simplify_algorithm_V1.0.0.LIB (TK_LIB)
  C:\KEIL_V5\C51\LIB\C51L.LIB (?C_INIT)
  C:\KEIL_V5\C51\LIB\C51L.LIB (?C?COPY)
  C:\KEIL_V5\C51\LIB\C51L.LIB (?C?CLDPTR)
  C:\KEIL_V5\C51\LIB\C51L.LIB (?C?CLDOPTR)
  C:\KEIL_V5\C51\LIB\C51L.LIB (?C?CILDOPTR)
  C:\KEIL_V5\C51\LIB\C51L.LIB (?C?CSTPTR)
  C:\KEIL_V5\C51\LIB\C51L.LIB (?C?CSTOPTR)
  C:\KEIL_V5\C51\LIB\C51L.LIB (?C?IMUL)
  C:\KEIL_V5\C51\LIB\C51L.LIB (?C?UIDIV)
  C:\KEIL_V5\C51\LIB\C51L.LIB (?C?IILDX)
  C:\KEIL_V5\C51\LIB\C51L.LIB (?C?LADD)
  C:\KEIL_V5\C51\LIB\C51L.LIB (?C?LSUB)
  C:\KEIL_V5\C51\LIB\C51L.LIB (?C?LMUL)
  C:\KEIL_V5\C51\LIB\C51L.LIB (?C?ULDIV)
  C:\KEIL_V5\C51\LIB\C51L.LIB (?C?LNOT)
BL51 BANKED LINKER/LOCATER V6.22.4.0                                                  05/26/2025  16:52:39  PAGE 2


  C:\KEIL_V5\C51\LIB\C51L.LIB (?C?LNEG)
  C:\KEIL_V5\C51\LIB\C51L.LIB (?C?SLCMP)
  C:\KEIL_V5\C51\LIB\C51L.LIB (?C?ULCMP)
  C:\KEIL_V5\C51\LIB\C51L.LIB (?C?ULSHR)
  C:\KEIL_V5\C51\LIB\C51L.LIB (?C?LSHL)
  C:\KEIL_V5\C51\LIB\C51L.LIB (?C?LLDXDATA)
  C:\KEIL_V5\C51\LIB\C51L.LIB (?C?LLDCODE)
  C:\KEIL_V5\C51\LIB\C51L.LIB (?C?LLDXDATA0)
  C:\KEIL_V5\C51\LIB\C51L.LIB (?C?LSTXDATA)
  C:\KEIL_V5\C51\LIB\C51L.LIB (?C?LSTKXDATA)
  C:\KEIL_V5\C51\LIB\C51L.LIB (?C?OFFXADD)
  C:\KEIL_V5\C51\LIB\C51L.LIB (?C?PLDXDATA)
  C:\KEIL_V5\C51\LIB\C51L.LIB (?C?PLDIXDATA)
  C:\KEIL_V5\C51\LIB\C51L.LIB (?C?PSTXDATA)
  C:\KEIL_V5\C51\LIB\C51L.LIB (?C?PLDOPTR)
  C:\KEIL_V5\C51\LIB\C51L.LIB (?C?CCASE)
  C:\KEIL_V5\C51\LIB\C51L.LIB (?C?ICALL)
  C:\KEIL_V5\C51\LIB\C51L.LIB (?C?LIMUL)
  C:\KEIL_V5\C51\LIB\C51L.LIB (PRINTF)
  C:\KEIL_V5\C51\LIB\C51L.LIB (?C?MEMSET)
  C:\KEIL_V5\C51\LIB\C51L.LIB (?C?PLDIDATA)
  C:\KEIL_V5\C51\LIB\C51L.LIB (?C?PLDPDATA)
  C:\KEIL_V5\C51\LIB\C51L.LIB (?C?PLDCODE)


LINK MAP OF MODULE:  .\Release\Objects\Project (?C_STARTUP)


            TYPE    BASE      LENGTH    RELOCATION   SEGMENT NAME
            -----------------------------------------------------

            * * * * * * *   D A T A   M E M O R Y   * * * * * * *
            REG     0000H     0008H     ABSOLUTE     "REG BANK 0"
            DATA    0008H     0004H     ABSOLUTE     
            DATA    000CH     0004H     ABSOLUTE     
            DATA    0010H     0004H     ABSOLUTE     
            DATA    0014H     0004H     ABSOLUTE     
            DATA    0018H     0004H     ABSOLUTE     
            DATA    001CH     0004H     ABSOLUTE     
            BIT     0020H.0   0002H.3   UNIT         ?BI?INSTRUCTION
            BIT     0022H.3   0001H.1   UNIT         _BIT_GROUP_
            BIT     0023H.4   0000H.2   UNIT         ?BI?TMR2
            BIT     0023H.6   0000H.2   UNIT         ?BI?TK_LIB
            BIT     0024H.0   0000H.1   UNIT         ?BI?UART0_SCAN_HANDLE?UART0
            BIT     0024H.1   0000H.1   UNIT         ?BI?UART0
            BIT     0024H.2   0000H.1   UNIT         ?BI?SPEED_SCAN
            BIT     0024H.3   0000H.1   UNIT         ?BI?ENGINE_SPEED_SCAN
                    0024H.4   000BH.4                *** GAP ***
            DATA    0030H     0004H     ABSOLUTE     
            DATA    0034H     0004H     ABSOLUTE     
            DATA    0038H     0004H     ABSOLUTE     
            DATA    003CH     0004H     ABSOLUTE     
            DATA    0040H     000DH     UNIT         _DATA_GROUP_
                    004DH     0003H                  *** GAP ***
            DATA    0050H     0002H     ABSOLUTE     
            DATA    0052H     0002H     ABSOLUTE     
            DATA    0054H     0002H     ABSOLUTE     
BL51 BANKED LINKER/LOCATER V6.22.4.0                                                  05/26/2025  16:52:39  PAGE 3


                    0056H     000AH                  *** GAP ***
            DATA    0060H     0001H     ABSOLUTE     
            DATA    0061H     0001H     ABSOLUTE     
            DATA    0062H     0001H     ABSOLUTE     
            DATA    0063H     0001H     ABSOLUTE     
            DATA    0064H     0001H     ABSOLUTE     
            DATA    0065H     0001H     ABSOLUTE     
            DATA    0066H     0001H     ABSOLUTE     
            IDATA   0067H     0001H     UNIT         ?STACK

            * * * * * * *  X D A T A   M E M O R Y  * * * * * * *
                    0000H     6000H                  *** GAP ***
            XDATA   6000H     0004H     ABSOLUTE     
            XDATA   6004H     0004H     ABSOLUTE     
            XDATA   6008H     0004H     ABSOLUTE     
            XDATA   600CH     0004H     UNIT         ?XD?TMR0
            XDATA   6010H     0004H     ABSOLUTE     
            XDATA   6014H     0004H     ABSOLUTE     
            XDATA   6018H     0394H     UNIT         ?XD?TK_LIB
            XDATA   63ACH     0045H     UNIT         ?XD?AD_KEY
            XDATA   63F1H     0030H     UNIT         _XDATA_GROUP_
            XDATA   6421H     0023H     UNIT         ?XD?FUN_INFO
            XDATA   6444H     001FH     UNIT         ?XD?TOUCH_KEY
            XDATA   6463H     001EH     UNIT         ?XD?UART0
            XDATA   6481H     0018H     UNIT         ?XD?TK_SET
            XDATA   6499H     0012H     UNIT         ?XD?MILEAGE
            XDATA   64ABH     0011H     UNIT         ?XD?SPEED_SCAN
            XDATA   64BCH     0011H     UNIT         ?XD?ENGINE_SPEED_SCAN
            XDATA   64CDH     000DH     UNIT         ?XD?FUEL_CAPACITY
            XDATA   64DAH     000CH     UNIT         ?XD?TEMP_OF_WATER
            XDATA   64E6H     000CH     UNIT         ?XD?BATTERY
            XDATA   64F2H     000BH     UNIT         ?XD?ADC_GETVAL?ADC
            XDATA   64FDH     0009H     UNIT         ?XD?_SEND_DATA?SEND_DATA
            XDATA   6506H     0009H     UNIT         ?XD?INSTRUCTION
            XDATA   650FH     0008H     UNIT         ?XD?TMR1
            XDATA   6517H     0007H     UNIT         ?XD?AIP1302_UPDATE_ALL_DATA?AIP1302
            XDATA   651EH     0007H     UNIT         ?XD?AIP1302_UPDATE_TIME?AIP1302
            XDATA   6525H     0005H     UNIT         ?XD?_FLASH_WRITE?FLASH
            XDATA   652AH     0004H     UNIT         ?XD?KEY_DRIVER
            XDATA   652EH     0004H     UNIT         ?XD?SPEED_SCAN?SPEED_SCAN
            XDATA   6532H     0004H     UNIT         ?XD?ENGINE_SPEED_SCAN?ENGINE_SPEED_SCAN
            XDATA   6536H     0004H     UNIT         ?XD?INSTRUCTION_HANDLE?INSTRUCTION
            XDATA   653AH     0003H     UNIT         ?XD?UART0_SCAN_HANDLE?UART0
            XDATA   653DH     0003H     UNIT         ?XD?AIP1302
            XDATA   6540H     0002H     UNIT         ?XD?ADC
            XDATA   6542H     0002H     UNIT         ?XD?_KEY_DRIVER_SCAN?KEY_DRIVER
            XDATA   6544H     0002H     UNIT         ?XD?PIN_LEVEL_SCAN
            XDATA   6546H     0002H     UNIT         ?XD?BATTERY_SCAN?BATTERY
            XDATA   6548H     0002H     UNIT         ?XD?___TOUCH_KEY_GET_EVENT?TOUCH_KEY
            XDATA   654AH     0002H     UNIT         ?XD?__TK_LIB_INIT?TK_LIB
            XDATA   654CH     0001H     UNIT         ?XD?INSTRUCTION_SCAN?INSTRUCTION

            * * * * * * *   C O D E   M E M O R Y   * * * * * * *
            CODE    0000H     0003H     ABSOLUTE     
            CODE    0003H     000CH     ABSOLUTE     
            CODE    000FH     000FH     UNIT         ?PR?AIP1302_IS_RUNNING?AIP1302
            CODE    001EH     0003H     ABSOLUTE     
BL51 BANKED LINKER/LOCATER V6.22.4.0                                                  05/26/2025  16:52:39  PAGE 4


            CODE    0021H     0003H     ABSOLUTE     
            CODE    0024H     0003H     ABSOLUTE     
            CODE    0027H     0023H     UNIT         ?PR?ADC_SINGLE_CONVERT?ADC
                    004AH     0001H                  *** GAP ***
            CODE    004BH     0003H     ABSOLUTE     
            CODE    004EH     000FH     UNIT         ?PR?AD_KEY
            CODE    005DH     0003H     ABSOLUTE     
            CODE    0060H     052DH     UNIT         ?C?LIB_CODE
            CODE    058DH     0365H     UNIT         ?PR?PRINTF?PRINTF
            CODE    08F2H     033FH     UNIT         ?PR?__TK_DATA_PROCESS?TK_LIB
            CODE    0C31H     025BH     UNIT         ?PR?FUEL_CAPACITY_SCAN?FUEL_CAPACITY
            CODE    0E8CH     0252H     UNIT         ?PR?___TK_MODE_CARRY_FUNC?TK_LIB
            CODE    10DEH     020EH     UNIT         ?PR?INSTRUCTION_HANDLE?INSTRUCTION
            CODE    12ECH     0206H     UNIT         ?C_INITSEG
            CODE    14F2H     0200H     UNIT         ?PR?_SEND_DATA?SEND_DATA
            CODE    16F2H     01D3H     UNIT         ?PR?HEART_BEAT_HANDLE?TMR1
            CODE    18C5H     01B9H     UNIT         ?PR?__TK_BUTTON_DECIDE?TK_LIB
            CODE    1A7EH     01B5H     UNIT         ?PR?___TK_LIB_I_ADJUST?TK_LIB
            CODE    1C33H     01A5H     UNIT         ?PR?_KEY_DRIVER_SCAN?KEY_DRIVER
            CODE    1DD8H     013CH     UNIT         ?PR?TK_GPIO_CONFIG?TK_SET
            CODE    1F14H     0138H     UNIT         ?PR?UART0_IRQHANDLER?UART0
            CODE    204CH     0134H     UNIT         ?PR?INSTRUCTION_SCAN?INSTRUCTION
            CODE    2180H     0124H     UNIT         ?PR?UART0_SCAN_HANDLE?UART0
            CODE    22A4H     00E0H     UNIT         ?PR?AIP1302_TEST?AIP1302
            CODE    2384H     00DCH     UNIT         ?PR?SYSTEM_INIT?SYSTEM
            CODE    2460H     00D4H     UNIT         ?PR?ADC_GETVAL?ADC
            CODE    2534H     00D4H     UNIT         ?PR?SPEED_SCAN?SPEED_SCAN
            CODE    2608H     00D0H     UNIT         ?PR?TEMP_OF_WATER_SCAN?TEMP_OF_WATER
            CODE    26D8H     00CAH     UNIT         ?PR?MILEAGE_SCAN?MILEAGE
            CODE    27A2H     00C0H     UNIT         ?PR?BATTERY_SCAN?BATTERY
            CODE    2862H     00BCH     UNIT         ?CO?TOUCH_KEY
            CODE    291EH     00AFH     UNIT         ?PR?_AIP1302_WRITE_BYTE?AIP1302
            CODE    29CDH     00ACH     UNIT         ?PR?ENGINE_SPEED_SCAN?ENGINE_SPEED_SCAN
            CODE    2A79H     00A8H     UNIT         ?PR?PIN_LEVEL_SCAN?PIN_LEVEL_SCAN
            CODE    2B21H     009BH     UNIT         ?PR?__TK_LIB_INIT?TK_LIB
            CODE    2BBCH     0093H     UNIT         ?PR?__TK_BASELINE_INIT?TK_LIB
            CODE    2C4FH     0092H     UNIT         ?PR?TK_PARAM_INIT?TK_SET
            CODE    2CE1H     0092H     UNIT         ?PR?___AIP1302_READ_BYTE?AIP1302
            CODE    2D73H     0090H     UNIT         ?PR?___AIP1302_WRITE_BYTE?AIP1302
            CODE    2E03H     0090H     UNIT         ?PR?TOUCH_KEY_HANDLE?TOUCH_KEY
            CODE    2E93H     008CH     UNIT         ?C_C51STARTUP
            CODE    2F1FH     0084H     UNIT         ?PR?___TK_SET_NEXT_CH?TK_LIB
            CODE    2FA3H     0083H     UNIT         ?PR?TIMR2_IRQHANDLER?TMR2
            CODE    3026H     007EH     UNIT         ?PR?__TK_BASELINE_UPDATE?TK_LIB
            CODE    30A4H     007EH     UNIT         ?PR?__TK_LONG_KEY_CLEAR?TK_LIB
            CODE    3122H     0075H     UNIT         ?PR?__TK_HANDLER?TK_LIB
            CODE    3197H     0071H     UNIT         ?PR?AIP1302_CONFIG?AIP1302
            CODE    3208H     006EH     UNIT         ?PR?___AIP1302_CONVERT_READ_BYTE?AIP1302
            CODE    3276H     0067H     UNIT         ?CO?AIP1302
            CODE    32DDH     0062H     UNIT         ?PR?TMR1
            CODE    333FH     0062H     UNIT         ?PR?__TK_I_SOURCE_ADJUST?TK_LIB
            CODE    33A1H     005AH     UNIT         ?PR?TIMR1_IRQHANDLER?TMR1
            CODE    33FBH     0059H     UNIT         ?PR?UART0
            CODE    3454H     004FH     UNIT         ?PR?TK_INIT?TK_SET
            CODE    34A3H     004FH     UNIT         ?PR?TIMR0_IRQHANDLER?TMR0
            CODE    34F2H     004CH     UNIT         ?PR?___CONVER_CUR_AD_TO_AD_KEY?AD_KEY
            CODE    353EH     0046H     UNIT         ?PR?AIP1302_READ_ALL?AIP1302
BL51 BANKED LINKER/LOCATER V6.22.4.0                                                  05/26/2025  16:52:39  PAGE 5


            CODE    3584H     0045H     UNIT         ?PR?TK_IRQHANDLER?TK_SET
            CODE    35C9H     0042H     UNIT         ?PR?_ADC_SEL_PIN?ADC
            CODE    360BH     0040H     UNIT         ?PR?TMR2_CONFIG?TMR2
            CODE    364BH     003FH     UNIT         ?PR?AIP1302_UPDATE_ALL_DATA?AIP1302
            CODE    368AH     003FH     UNIT         ?PR?AIP1302_UPDATE_TIME?AIP1302
            CODE    36C9H     003EH     UNIT         ?PR?SEND_DATA
            CODE    3707H     003EH     UNIT         ?PR?INSTRUCTION
            CODE    3745H     003DH     UNIT         ?PR?TMR1_CONFIG?TMR1
            CODE    3782H     003DH     UNIT         ?PR?__TK_MODE_CONFIG?TK_LIB
            CODE    37BFH     003CH     UNIT         ?PR?TMR0_CONFIG?TMR0
            CODE    37FBH     003AH     UNIT         ?PR?USER_INIT?MAIN
            CODE    3835H     0037H     UNIT         ?PR?_FLASH_WRITE?FLASH
            CODE    386CH     0035H     UNIT         ?PR?___TOUCH_KEY_GET_EVENT?TOUCH_KEY
            CODE    38A1H     0034H     UNIT         ?PR?_FLASH_READ?FLASH
            CODE    38D5H     0032H     UNIT         ?PR?MAIN?MAIN
            CODE    3907H     0032H     UNIT         ?PR?AD_KEY_GET_KEY_ID?AD_KEY
            CODE    3939H     002EH     UNIT         ?PR?AIP1302
            CODE    3967H     002BH     UNIT         ?PR?UART0_CONFIG?UART0
            CODE    3992H     002BH     UNIT         ?PR?PIN_LEVEL_SCAN_CONFIG?PIN_LEVEL_SCAN
            CODE    39BDH     002BH     UNIT         ?PR?MILEAGE
            CODE    39E8H     0028H     UNIT         ?PR?FUEL_CAPACITY
            CODE    3A10H     0023H     UNIT         ?PR?___AD_KEY_GET_EVENT?AD_KEY
            CODE    3A33H     0023H     UNIT         ?PR?AD_KEY_HANDLE?AD_KEY
            CODE    3A56H     0021H     UNIT         ?PR?KEY_DRIVER
            CODE    3A77H     0020H     UNIT         ?PR?TOUCH_KEY_GET_KEY_ID?TOUCH_KEY
            CODE    3A97H     0020H     UNIT         ?PR?__TK_SCAN?TK_LIB
            CODE    3AB7H     001FH     UNIT         ?PR?TOUCH_KEY
            CODE    3AD6H     001EH     UNIT         ?CO?TK_SET
            CODE    3AF4H     001EH     UNIT         ?PR?TMR2
            CODE    3B12H     001EH     UNIT         ?PR?TEMP_OF_WATER
            CODE    3B30H     001DH     UNIT         ?PR?ADC_CONFIG?ADC
            CODE    3B4DH     001BH     UNIT         ?PR?_DELAY_MS?SYSTEM
            CODE    3B68H     001BH     UNIT         ?PR?ADC
            CODE    3B83H     001AH     UNIT         ?PR?_REVERSE_U8?AIP1302
            CODE    3B9DH     0018H     UNIT         ?PR?TK_SET
            CODE    3BB5H     0018H     UNIT         ?PR?FUN_INFO_INIT?FUN_INFO
            CODE    3BCDH     0017H     UNIT         ?PR?_CONVER_VOLTAGE_OF_BATTERY_TO_PERCENTAGE?BATTERY
            CODE    3BE4H     0016H     UNIT         ?PR?_AIP1302_READ_BYTE?AIP1302
            CODE    3BFAH     0016H     UNIT         ?PR?SPEED_SCAN
            CODE    3C10H     0011H     UNIT         ?PR?TMR2_ENABLE?TMR2
            CODE    3C21H     0011H     UNIT         ?PR?_FLASH_ERASE_SECTOR?FLASH
            CODE    3C32H     0010H     UNIT         ?PR?P03_OUTPUT_CONFIG?MY_GPIO
            CODE    3C42H     0010H     UNIT         ?PR?TMR0_DISABLE?TMR0
            CODE    3C52H     0010H     UNIT         ?PR?TMR1_ENABLE?TMR1
            CODE    3C62H     0010H     UNIT         ?PR?_CONVER_ADC_VAL_TO_VOLTAGE?BATTERY
            CODE    3C72H     000EH     UNIT         ?PR?_PUTCHAR?UART0
            CODE    3C80H     000EH     UNIT         ?PR?FUN_INFO_SAVE?FUN_INFO
            CODE    3C8EH     000DH     UNIT         ?PR?P06_INPUT_CONFIG?MY_GPIO
            CODE    3C9BH     000DH     UNIT         ?PR?P07_INPUT_CONFIG?MY_GPIO
            CODE    3CA8H     000DH     UNIT         ?PR?P10_INPUT_CONFIG?MY_GPIO
            CODE    3CB5H     000DH     UNIT         ?PR?P13_INPUT_CONFIG?MY_GPIO
            CODE    3CC2H     000DH     UNIT         ?PR?P14_INPUT_CONFIG?MY_GPIO
            CODE    3CCFH     000DH     UNIT         ?PR?P21_INPUT_CONFIG?MY_GPIO
            CODE    3CDCH     000DH     UNIT         ?PR?P22_INPUT_CONFIG?MY_GPIO
            CODE    3CE9H     000DH     UNIT         ?PR?P23_INPUT_CONFIG?MY_GPIO
            CODE    3CF6H     000DH     UNIT         ?PR?P25_INPUT_CONFIG?MY_GPIO
            CODE    3D03H     000DH     UNIT         ?PR?P27_INPUT_CONFIG?MY_GPIO
BL51 BANKED LINKER/LOCATER V6.22.4.0                                                  05/26/2025  16:52:39  PAGE 6


            CODE    3D10H     000DH     UNIT         ?PR?P30_INPUT_CONFIG?MY_GPIO
            CODE    3D1DH     000DH     UNIT         ?PR?_UART0_SENDBYTE?UART0
            CODE    3D2AH     000DH     UNIT         ?PR?SPEED_SCAN_CONFIG?SPEED_SCAN
            CODE    3D37H     000DH     UNIT         ?CO?AD_KEY
            CODE    3D44H     000CH     UNIT         ?PR?TMR0_ENABLE?TMR0
            CODE    3D50H     000CH     UNIT         ?PR?FUN_INFO
            CODE    3D5CH     000BH     UNIT         ?PR?_DELAY?SYSTEM
            CODE    3D67H     000BH     UNIT         ?CO?MAIN
            CODE    3D72H     0008H     UNIT         ?PR?TMR0
            CODE    3D7AH     0007H     UNIT         ?PR?ENGINE_SPEED_SCAN_CONFIG?ENGINE_SPEED_SCAN
            CODE    3D81H     0005H     UNIT         ?PR?__TK_MS_HANDLER?TK_LIB



OVERLAY MAP OF MODULE:   .\Release\Objects\Project (?C_STARTUP)


SEGMENT                                             BIT_GROUP          DATA_GROUP          XDATA_GROUP
  +--> CALLED SEGMENT                            START    LENGTH     START    LENGTH     START    LENGTH
--------------------------------------------------------------------------------------------------------
?C_C51STARTUP                                    -----    -----      -----    -----      -----    -----
  +--> ?PR?MAIN?MAIN
  +--> ?C_INITSEG

?PR?MAIN?MAIN                                    -----    -----      -----    -----      -----    -----
  +--> ?PR?SYSTEM_INIT?SYSTEM
  +--> ?PR?USER_INIT?MAIN
  +--> ?CO?MAIN
  +--> ?PR?PRINTF?PRINTF
  +--> ?PR?_DELAY_MS?SYSTEM
  +--> ?PR?AIP1302_TEST?AIP1302
  +--> ?PR?HEART_BEAT_HANDLE?TMR1

?PR?SYSTEM_INIT?SYSTEM                           -----    -----      -----    -----      -----    -----
  +--> ?PR?_DELAY?SYSTEM
  +--> ?PR?_DELAY_MS?SYSTEM

?PR?_DELAY_MS?SYSTEM                             -----    -----      -----    -----      -----    -----
  +--> ?PR?_DELAY?SYSTEM

?PR?USER_INIT?MAIN                               -----    -----      -----    -----      -----    -----
  +--> ?PR?FUN_INFO_INIT?FUN_INFO
  +--> ?PR?TMR0_CONFIG?TMR0
  +--> ?PR?UART0_CONFIG?UART0
  +--> ?PR?PIN_LEVEL_SCAN_CONFIG?PIN_LEVEL_SCAN
  +--> ?PR?TMR1_CONFIG?TMR1
  +--> ?PR?SPEED_SCAN_CONFIG?SPEED_SCAN
  +--> ?PR?ENGINE_SPEED_SCAN_CONFIG?ENGINE_S...
  +--> ?PR?ADC_CONFIG?ADC
  +--> ?PR?AIP1302_CONFIG?AIP1302
  +--> ?PR?TMR2_CONFIG?TMR2
  +--> ?PR?TMR1_ENABLE?TMR1
  +--> ?PR?TMR2_ENABLE?TMR2
  +--> ?PR?_DELAY_MS?SYSTEM

?PR?FUN_INFO_INIT?FUN_INFO                       -----    -----      -----    -----      -----    -----
  +--> ?PR?FUN_INFO
BL51 BANKED LINKER/LOCATER V6.22.4.0                                                  05/26/2025  16:52:39  PAGE 7


  +--> ?PR?_FLASH_READ?FLASH

?PR?_FLASH_READ?FLASH                            -----    -----      -----    -----      63F1H    0005H

?PR?TMR0_CONFIG?TMR0                             -----    -----      -----    -----      -----    -----
  +--> ?PR?TMR0

?PR?PIN_LEVEL_SCAN_CONFIG?PIN_LEVEL_SCAN         -----    -----      -----    -----      -----    -----
  +--> ?PR?P21_INPUT_CONFIG?MY_GPIO
  +--> ?PR?P22_INPUT_CONFIG?MY_GPIO
  +--> ?PR?P25_INPUT_CONFIG?MY_GPIO
  +--> ?PR?P27_INPUT_CONFIG?MY_GPIO
  +--> ?PR?P30_INPUT_CONFIG?MY_GPIO
  +--> ?PR?P14_INPUT_CONFIG?MY_GPIO
  +--> ?PR?P13_INPUT_CONFIG?MY_GPIO
  +--> ?PR?P10_INPUT_CONFIG?MY_GPIO
  +--> ?PR?P07_INPUT_CONFIG?MY_GPIO
  +--> ?PR?P06_INPUT_CONFIG?MY_GPIO

?PR?ADC_CONFIG?ADC                               -----    -----      -----    -----      -----    -----
  +--> ?PR?ADC

?PR?AIP1302_CONFIG?AIP1302                       -----    -----      -----    -----      -----    -----
  +--> ?PR?AIP1302
  +--> ?PR?AIP1302_IS_RUNNING?AIP1302
  +--> ?CO?AIP1302
  +--> ?PR?PRINTF?PRINTF
  +--> ?PR?_AIP1302_WRITE_BYTE?AIP1302
  +--> ?PR?AIP1302_READ_ALL?AIP1302

?PR?AIP1302_IS_RUNNING?AIP1302                   -----    -----      -----    -----      -----    -----
  +--> ?PR?___AIP1302_READ_BYTE?AIP1302

?PR?___AIP1302_READ_BYTE?AIP1302                 -----    -----      -----    -----      63F2H    0003H
  +--> ?PR?AIP1302
  +--> ?PR?_DELAY?SYSTEM

?PR?PRINTF?PRINTF                                0022H.3  0001H.1    0040H    0005H      63F1H    0028H
  +--> ?PR?_PUTCHAR?UART0

?PR?_PUTCHAR?UART0                               -----    -----      -----    -----      6419H    0001H
  +--> ?PR?_UART0_SENDBYTE?UART0

?PR?_AIP1302_WRITE_BYTE?AIP1302                  -----    -----      -----    -----      63F1H    0004H
  +--> ?PR?___AIP1302_WRITE_BYTE?AIP1302

?PR?___AIP1302_WRITE_BYTE?AIP1302                -----    -----      -----    -----      63F5H    0003H
  +--> ?PR?AIP1302
  +--> ?PR?_DELAY?SYSTEM

?PR?AIP1302_READ_ALL?AIP1302                     -----    -----      -----    -----      -----    -----
  +--> ?PR?_AIP1302_READ_BYTE?AIP1302

?PR?_AIP1302_READ_BYTE?AIP1302                   -----    -----      -----    -----      63F1H    0001H
  +--> ?PR?___AIP1302_READ_BYTE?AIP1302
  +--> ?PR?___AIP1302_CONVERT_READ_BYTE?AIP1302

BL51 BANKED LINKER/LOCATER V6.22.4.0                                                  05/26/2025  16:52:39  PAGE 8


?PR?___AIP1302_CONVERT_READ_BYTE?AIP1302         -----    -----      -----    -----      63F2H    0003H
  +--> ?PR?_REVERSE_U8?AIP1302

?PR?AIP1302_TEST?AIP1302                         -----    -----      -----    -----      -----    -----
  +--> ?PR?_AIP1302_READ_BYTE?AIP1302
  +--> ?CO?AIP1302
  +--> ?PR?PRINTF?PRINTF
  +--> ?PR?_AIP1302_WRITE_BYTE?AIP1302

?PR?HEART_BEAT_HANDLE?TMR1                       -----    -----      -----    -----      63F1H    0008H
  +--> ?PR?TMR1

?C_INITSEG                                       -----    -----      -----    -----      -----    -----
  +--> ?PR?AD_KEY_GET_KEY_ID?AD_KEY
  +--> ?PR?TOUCH_KEY_GET_KEY_ID?TOUCH_KEY

?PR?AD_KEY_GET_KEY_ID?AD_KEY                     -----    -----      -----    -----      63F1H    0002H
  +--> ?PR?_ADC_SEL_PIN?ADC
  +--> ?PR?ADC_SINGLE_CONVERT?ADC
  +--> ?PR?___CONVER_CUR_AD_TO_AD_KEY?AD_KEY

?PR?_ADC_SEL_PIN?ADC                             -----    -----      -----    -----      -----    -----
  +--> ?PR?ADC
  +--> ?PR?_DELAY_MS?SYSTEM

?PR?___CONVER_CUR_AD_TO_AD_KEY?AD_KEY            -----    -----      -----    -----      63F3H    0002H

?PR?TOUCH_KEY_GET_KEY_ID?TOUCH_KEY               -----    -----      -----    -----      -----    -----
  +--> ?PR?__TK_SCAN?TK_LIB
  +--> ?PR?TOUCH_KEY

?PR?__TK_SCAN?TK_LIB                             -----    -----      -----    -----      -----    -----
  +--> ?PR?__TK_BUTTON_DECIDE?TK_LIB
  +--> ?PR?___TK_SET_NEXT_CH?TK_LIB

?PR?__TK_BUTTON_DECIDE?TK_LIB                    -----    -----      -----    -----      -----    -----
  +--> ?CO?TK_SET
  +--> ?PR?___TK_MODE_CARRY_FUNC?TK_LIB

?PR?___TK_MODE_CARRY_FUNC?TK_LIB                 -----    -----      -----    -----      63F1H    0001H
  +--> ?CO?TK_SET
  +--> ?PR?__TK_BASELINE_UPDATE?TK_LIB

?PR?__TK_BASELINE_UPDATE?TK_LIB                  -----    -----      -----    -----      -----    -----
  +--> ?CO?TK_SET

*** NEW ROOT ***************************************************

?PR?TK_IRQHANDLER?TK_SET                         -----    -----      -----    -----      -----    -----
  +--> ?PR?__TK_HANDLER?TK_LIB

?PR?__TK_HANDLER?TK_LIB                          -----    -----      -----    -----      -----    -----
  +--> ?CO?TK_SET
  +--> ?PR?__TK_MODE_CONFIG?TK_LIB
  +--> ?PR?__TK_I_SOURCE_ADJUST?TK_LIB
  +--> ?PR?__TK_BASELINE_INIT?TK_LIB
  +--> ?PR?___TK_SET_NEXT_CH?TK_LIB
BL51 BANKED LINKER/LOCATER V6.22.4.0                                                  05/26/2025  16:52:39  PAGE 9



?PR?__TK_MODE_CONFIG?TK_LIB                      -----    -----      -----    -----      -----    -----
  +--> ?PR?___TK_SET_NEXT_CH?TK_LIB

?PR?__TK_I_SOURCE_ADJUST?TK_LIB                  -----    -----      -----    -----      641AH    0001H
  +--> ?CO?TK_SET
  +--> ?PR?___TK_LIB_I_ADJUST?TK_LIB
  +--> ?PR?__TK_MODE_CONFIG?TK_LIB
  +--> ?PR?___TK_SET_NEXT_CH?TK_LIB

?PR?___TK_LIB_I_ADJUST?TK_LIB                    -----    -----      0045H    0008H      641BH    0005H
  +--> ?CO?TK_SET

?PR?__TK_BASELINE_INIT?TK_LIB                    -----    -----      -----    -----      -----    -----
  +--> ?CO?TK_SET
  +--> ?PR?___TK_SET_NEXT_CH?TK_LIB

*** NEW ROOT ***************************************************

?PR?TIMR1_IRQHANDLER?TMR1                        -----    -----      -----    -----      -----    -----
  +--> ?PR?TMR1

*** NEW ROOT ***************************************************

?PR?TIMR2_IRQHANDLER?TMR2                        -----    -----      -----    -----      -----    -----
  +--> ?PR?TMR2

*** NEW ROOT ***************************************************

?PR?UART0_IRQHANDLER?UART0                       -----    -----      -----    -----      6420H    0001H
  +--> ?PR?UART0
  +--> ?PR?TMR0_DISABLE?TMR0
  +--> ?PR?TMR0_ENABLE?TMR0

?PR?TMR0_DISABLE?TMR0                            -----    -----      -----    -----      -----    -----
  +--> ?PR?TMR0

?PR?TMR0_ENABLE?TMR0                             -----    -----      -----    -----      -----    -----
  +--> ?PR?TMR0



SYMBOL TABLE OF MODULE:  .\Release\Objects\Project (?C_STARTUP)

  VALUE           TYPE          NAME
  ----------------------------------

  -------         MODULE        ?C_STARTUP
  C:2E93H         SEGMENT       ?C_C51STARTUP
  I:0067H         SEGMENT       ?STACK
  C:0000H         PUBLIC        ?C_STARTUP
  D:00E0H         SYMBOL        ACC
  D:00F0H         SYMBOL        B
  D:0083H         SYMBOL        DPH
  D:0082H         SYMBOL        DPL
  N:0000H         SYMBOL        IBPSTACK
  N:0100H         SYMBOL        IBPSTACKTOP
BL51 BANKED LINKER/LOCATER V6.22.4.0                                                  05/26/2025  16:52:39  PAGE 10


  N:0080H         SYMBOL        IDATALEN
  C:2E96H         SYMBOL        IDATALOOP
  N:0000H         SYMBOL        PBPSTACK
  N:0100H         SYMBOL        PBPSTACKTOP
  N:0000H         SYMBOL        PDATALEN
  N:0000H         SYMBOL        PDATASTART
  N:0000H         SYMBOL        PPAGE
  N:0000H         SYMBOL        PPAGEENABLE
  D:00A0H         SYMBOL        PPAGE_SFR
  D:0081H         SYMBOL        SP
  C:2E93H         SYMBOL        STARTUP1
  N:0000H         SYMBOL        XBPSTACK
  N:0000H         SYMBOL        XBPSTACKTOP
  N:0000H         SYMBOL        XDATALEN
  N:0000H         SYMBOL        XDATASTART
  C:0000H         LINE#         126
  C:2E93H         LINE#         133
  C:2E95H         LINE#         134
  C:2E96H         LINE#         135
  C:2E97H         LINE#         136
  C:2E99H         LINE#         185
  C:2E9CH         LINE#         196
  -------         ENDMOD        ?C_STARTUP

  -------         MODULE        SYSTEM
  C:0000H         SYMBOL        _ICE_DUMMY_
  D:00D9H         PUBLIC        WDT_KEY
  D:00A7H         PUBLIC        FLASH_TIMEREG0
  D:00ACH         PUBLIC        FLASH_TIMEREG1
  C:3D5CH         PUBLIC        _delay
  C:3B4DH         PUBLIC        _delay_ms
  C:2384H         PUBLIC        system_init
  -------         PROC          _DELAY
  D:0006H         SYMBOL        cnt
  C:3D5CH         LINE#         37
  C:3D5CH         LINE#         38
  C:3D5CH         LINE#         39
  C:3D66H         LINE#         40
  C:3D66H         LINE#         41
  C:3D66H         LINE#         42
  -------         ENDPROC       _DELAY
  -------         PROC          _DELAY_MS
  D:0002H         SYMBOL        ms
  C:3B4DH         LINE#         49
  C:3B51H         LINE#         50
  C:3B51H         LINE#         51
  C:3B5BH         LINE#         52
  C:3B5BH         LINE#         53
  C:3B5EH         LINE#         56
  C:3B65H         LINE#         57
  C:3B67H         LINE#         58
  -------         ENDPROC       _DELAY_MS
  -------         PROC          SYSTEM_INIT
  -------         DO            
  D:0007H         SYMBOL        i
  -------         ENDDO         
  C:2384H         LINE#         65
BL51 BANKED LINKER/LOCATER V6.22.4.0                                                  05/26/2025  16:52:39  PAGE 11


  C:2384H         LINE#         66
  C:2384H         LINE#         69
  C:238BH         LINE#         70
  C:2398H         LINE#         71
  C:239BH         LINE#         74
  C:239EH         LINE#         75
  C:23A4H         LINE#         76
  C:23AAH         LINE#         77
  C:23B0H         LINE#         78
  C:23B6H         LINE#         79
  C:23BDH         LINE#         83
  C:23BFH         LINE#         84
  C:23BFH         LINE#         85
  C:23CCH         LINE#         86
  C:23D1H         LINE#         88
  C:245FH         LINE#         89
  -------         ENDPROC       SYSTEM_INIT
  -------         ENDMOD        SYSTEM

  -------         MODULE        TK_SET
  C:0000H         SYMBOL        _ICE_DUMMY_
  D:00A8H         PUBLIC        IE0
  D:00A9H         PUBLIC        IE1
  D:00AAH         PUBLIC        IE2
  D:00ABH         PUBLIC        IE3
  B:00A8H.7       PUBLIC        IE_EA
  D:00B8H         PUBLIC        IP0
  D:00B1H         PUBLIC        IP1
  D:00B2H         PUBLIC        IP2
  D:00B3H         PUBLIC        IP3
  D:00B4H         PUBLIC        IP4
  D:00B5H         PUBLIC        IP5
  D:00B6H         PUBLIC        IP6
  D:00B7H         PUBLIC        IP7
  C:2C4FH         PUBLIC        tk_param_init
  X:6481H         PUBLIC        __tk_update_cnt
  X:6483H         PUBLIC        __tk_confirm_cnt
  X:6485H         PUBLIC        __tk_leave_cnt
  X:6487H         PUBLIC        __tk_ch_index
  X:6489H         PUBLIC        __tk_ch_fth
  X:648DH         PUBLIC        __tk_i_set
  X:6000H         PUBLIC        __tk_ch_data_0
  X:6004H         PUBLIC        __tk_ch_data_1
  X:6008H         PUBLIC        __tk_ch_data_2
  X:6010H         PUBLIC        __tk_ch_data_3
  X:6014H         PUBLIC        __tk_ch_data_4
  X:6491H         PUBLIC        __tk_ch_data_5
  X:6495H         PUBLIC        __tk_ch_data_6
  C:3AD6H         PUBLIC        __tk_adjust_line
  C:3ADAH         PUBLIC        __tk_adjust_time
  C:3ADCH         PUBLIC        __tk_adjust_diff_valu
  C:3ADEH         PUBLIC        __tk_adjust_en
  C:3ADFH         PUBLIC        __tk_valid_time
  C:3AE1H         PUBLIC        __tk_long_key_time
  C:3AEBH         PUBLIC        __tk_use_num
  C:3AE5H         PUBLIC        __tk_cs_en
  C:3AE7H         PUBLIC        __tk_nm_num
BL51 BANKED LINKER/LOCATER V6.22.4.0                                                  05/26/2025  16:52:39  PAGE 12


  C:3AE6H         PUBLIC        __tk_tp_en
  C:3AE8H         PUBLIC        __tk_base_update_cnt
  C:3AEAH         PUBLIC        __tk_cm_valu
  C:3AE3H         PUBLIC        __tk_noise_value
  C:3AE9H         PUBLIC        __tk_nm_cm_value
  C:3AECH         SYMBOL        TK_CH_EN_BUG
  C:1DD8H         PUBLIC        tk_gpio_config
  C:3584H         PUBLIC        TK_IRQHandler
  C:3454H         PUBLIC        tk_init
  C:3B9DH         SYMBOL        Com0055
  C:3B9DH         SYMBOL        L?0086
  C:3B9DH         SYMBOL        L?0087
  C:3B9FH         SYMBOL        L?0088
  C:3BA2H         SYMBOL        L?0089
  C:3BABH         SYMBOL        L?0090
  C:3BADH         SYMBOL        L?0091
  -------         PROC          COM0055
  -------         ENDPROC       COM0055
  -------         PROC          TK_GPIO_CONFIG
  -------         DO            
  D:0007H         SYMBOL        i
  -------         ENDDO         
  C:1DD8H         LINE#         262
  C:1DD8H         LINE#         263
  C:1DD8H         LINE#         264
  C:1DDAH         LINE#         266
  C:1DDAH         LINE#         267
  C:1DDAH         LINE#         269
  C:1DE2H         LINE#         270
  C:1DE2H         LINE#         271
  C:1DEAH         LINE#         272
  C:1DEAH         LINE#         273
  C:1DFFH         LINE#         274
  C:1E0FH         LINE#         275
  C:1E12H         LINE#         277
  C:1E12H         LINE#         278
  C:1E27H         LINE#         279
  C:1E37H         LINE#         280
  C:1E37H         LINE#         281
  C:1E3AH         LINE#         282
  C:1E4AH         LINE#         283
  C:1E4AH         LINE#         284
  C:1E52H         LINE#         285
  C:1E52H         LINE#         286
  C:1E69H         LINE#         287
  C:1E7BH         LINE#         288
  C:1E7EH         LINE#         290
  C:1E7EH         LINE#         291
  C:1E95H         LINE#         292
  C:1EA7H         LINE#         293
  C:1EA7H         LINE#         294
  C:1EAAH         LINE#         296
  C:1EAAH         LINE#         297
  C:1EB2H         LINE#         298
  C:1EB2H         LINE#         299
  C:1EC9H         LINE#         300
  C:1EDBH         LINE#         301
BL51 BANKED LINKER/LOCATER V6.22.4.0                                                  05/26/2025  16:52:39  PAGE 13


  C:1EDDH         LINE#         303
  C:1EDDH         LINE#         304
  C:1EF4H         LINE#         305
  C:1F0AH         LINE#         306
  C:1F0AH         LINE#         307
  C:1F0AH         LINE#         308
  C:1F13H         LINE#         309
  -------         ENDPROC       TK_GPIO_CONFIG
  -------         PROC          TK_IRQHANDLER
  C:3584H         LINE#         316
  C:35A1H         LINE#         318
  C:35A1H         LINE#         319
  C:35A7H         LINE#         320
  C:35A7H         LINE#         321
  C:35ABH         LINE#         322
  C:35AEH         LINE#         323
  C:35AEH         LINE#         324
  C:35AEH         LINE#         325
  -------         ENDPROC       TK_IRQHANDLER
  -------         PROC          TK_INIT
  C:3454H         LINE#         332
  C:3454H         LINE#         333
  C:3454H         LINE#         334
  C:3456H         LINE#         335
  C:3459H         LINE#         336
  C:345CH         LINE#         337
  C:3463H         LINE#         338
  C:3466H         LINE#         339
  C:346BH         LINE#         340
  C:346FH         LINE#         341
  C:3474H         LINE#         342
  C:3478H         LINE#         343
  C:347DH         LINE#         344
  C:3481H         LINE#         345
  C:3486H         LINE#         346
  C:348AH         LINE#         347
  C:348DH         LINE#         348
  C:348FH         LINE#         349
  C:3491H         LINE#         350
  C:3496H         LINE#         351
  C:349AH         LINE#         352
  C:349EH         LINE#         353
  C:34A2H         LINE#         354
  -------         ENDPROC       TK_INIT
  -------         PROC          TK_PARAM_INIT
  -------         DO            
  D:0003H         SYMBOL        i
  -------         ENDDO         
  C:2C4FH         LINE#         403
  C:2C4FH         LINE#         404
  C:2C4FH         LINE#         405
  C:2C51H         LINE#         408
  C:2C51H         LINE#         409
  C:2C51H         LINE#         410
  C:2C6FH         LINE#         411
  C:2C95H         LINE#         412
  C:2CA7H         LINE#         413
BL51 BANKED LINKER/LOCATER V6.22.4.0                                                  05/26/2025  16:52:39  PAGE 14


  C:2CCFH         LINE#         414
  C:2CD8H         LINE#         417
  C:2CDBH         LINE#         420
  C:2CDEH         LINE#         423
  -------         ENDPROC       TK_PARAM_INIT
  -------         ENDMOD        TK_SET

  -------         MODULE        MY_GPIO
  C:0000H         SYMBOL        _ICE_DUMMY_
  C:3C32H         PUBLIC        p03_output_config
  C:3C8EH         PUBLIC        p06_input_config
  C:3C9BH         PUBLIC        p07_input_config
  C:3CA8H         PUBLIC        p10_input_config
  C:3CB5H         PUBLIC        p13_input_config
  C:3CC2H         PUBLIC        p14_input_config
  C:3CCFH         PUBLIC        p21_input_config
  C:3CDCH         PUBLIC        p22_input_config
  C:3CE9H         PUBLIC        p23_input_config
  C:3CF6H         PUBLIC        p25_input_config
  C:3D03H         PUBLIC        p27_input_config
  C:3D10H         PUBLIC        p30_input_config
  -------         PROC          P03_OUTPUT_CONFIG
  C:3C32H         LINE#         67
  C:3C32H         LINE#         68
  C:3C32H         LINE#         69
  C:3C38H         LINE#         70
  C:3C3CH         LINE#         72
  C:3C41H         LINE#         73
  -------         ENDPROC       P03_OUTPUT_CONFIG
  -------         PROC          P06_INPUT_CONFIG
  C:3C8EH         LINE#         90
  C:3C8EH         LINE#         91
  C:3C8EH         LINE#         93
  C:3C94H         LINE#         95
  C:3C9AH         LINE#         96
  -------         ENDPROC       P06_INPUT_CONFIG
  -------         PROC          P07_INPUT_CONFIG
  C:3C9BH         LINE#         99
  C:3C9BH         LINE#         100
  C:3C9BH         LINE#         102
  C:3CA1H         LINE#         104
  C:3CA7H         LINE#         105
  -------         ENDPROC       P07_INPUT_CONFIG
  -------         PROC          P10_INPUT_CONFIG
  C:3CA8H         LINE#         108
  C:3CA8H         LINE#         109
  C:3CA8H         LINE#         111
  C:3CAEH         LINE#         113
  C:3CB4H         LINE#         114
  -------         ENDPROC       P10_INPUT_CONFIG
  -------         PROC          P13_INPUT_CONFIG
  C:3CB5H         LINE#         117
  C:3CB5H         LINE#         118
  C:3CB5H         LINE#         120
  C:3CBBH         LINE#         122
  C:3CC1H         LINE#         123
  -------         ENDPROC       P13_INPUT_CONFIG
BL51 BANKED LINKER/LOCATER V6.22.4.0                                                  05/26/2025  16:52:39  PAGE 15


  -------         PROC          P14_INPUT_CONFIG
  C:3CC2H         LINE#         126
  C:3CC2H         LINE#         127
  C:3CC2H         LINE#         129
  C:3CC8H         LINE#         131
  C:3CCEH         LINE#         132
  -------         ENDPROC       P14_INPUT_CONFIG
  -------         PROC          P21_INPUT_CONFIG
  C:3CCFH         LINE#         144
  C:3CCFH         LINE#         145
  C:3CCFH         LINE#         147
  C:3CD5H         LINE#         149
  C:3CDBH         LINE#         150
  -------         ENDPROC       P21_INPUT_CONFIG
  -------         PROC          P22_INPUT_CONFIG
  C:3CDCH         LINE#         153
  C:3CDCH         LINE#         154
  C:3CDCH         LINE#         156
  C:3CE2H         LINE#         158
  C:3CE8H         LINE#         159
  -------         ENDPROC       P22_INPUT_CONFIG
  -------         PROC          P23_INPUT_CONFIG
  C:3CE9H         LINE#         162
  C:3CE9H         LINE#         163
  C:3CE9H         LINE#         165
  C:3CEFH         LINE#         167
  C:3CF5H         LINE#         168
  -------         ENDPROC       P23_INPUT_CONFIG
  -------         PROC          P25_INPUT_CONFIG
  C:3CF6H         LINE#         171
  C:3CF6H         LINE#         172
  C:3CF6H         LINE#         174
  C:3CFCH         LINE#         176
  C:3D02H         LINE#         177
  -------         ENDPROC       P25_INPUT_CONFIG
  -------         PROC          P27_INPUT_CONFIG
  C:3D03H         LINE#         180
  C:3D03H         LINE#         181
  C:3D03H         LINE#         183
  C:3D09H         LINE#         185
  C:3D0FH         LINE#         186
  -------         ENDPROC       P27_INPUT_CONFIG
  -------         PROC          P30_INPUT_CONFIG
  C:3D10H         LINE#         189
  C:3D10H         LINE#         190
  C:3D10H         LINE#         192
  C:3D16H         LINE#         194
  C:3D1CH         LINE#         195
  -------         ENDPROC       P30_INPUT_CONFIG
  -------         ENDMOD        MY_GPIO

  -------         MODULE        TMR0
  C:0000H         SYMBOL        _ICE_DUMMY_
  D:00A8H         PUBLIC        IE0
  D:00A9H         PUBLIC        IE1
  D:00AAH         PUBLIC        IE2
  D:00ABH         PUBLIC        IE3
BL51 BANKED LINKER/LOCATER V6.22.4.0                                                  05/26/2025  16:52:39  PAGE 16


  B:00A8H.7       PUBLIC        IE_EA
  D:00B8H         PUBLIC        IP0
  D:00B1H         PUBLIC        IP1
  D:00B2H         PUBLIC        IP2
  D:00B3H         PUBLIC        IP3
  D:00B4H         PUBLIC        IP4
  D:00B5H         PUBLIC        IP5
  D:00B6H         PUBLIC        IP6
  D:00B7H         PUBLIC        IP7
  X:600CH         PUBLIC        tmr0_cnt
  C:37BFH         PUBLIC        tmr0_config
  C:3D44H         PUBLIC        tmr0_enable
  C:3C42H         PUBLIC        tmr0_disable
  C:34A3H         PUBLIC        TIMR0_IRQHandler
  C:3D72H         SYMBOL        Com004E
  C:3D72H         SYMBOL        L?0079
  C:3D72H         SYMBOL        L?0080
  -------         PROC          COM004E
  -------         ENDPROC       COM004E
  -------         PROC          TMR0_CONFIG
  C:37BFH         LINE#         13
  C:37BFH         LINE#         14
  C:37BFH         LINE#         15
  C:37C5H         LINE#         16
  C:37C8H         LINE#         17
  C:37CAH         LINE#         20
  C:37CEH         LINE#         21
  C:37D0H         LINE#         23
  C:37D6H         LINE#         24
  C:37DAH         LINE#         25
  C:37DEH         LINE#         26
  C:37E2H         LINE#         28
  C:37E7H         LINE#         29
  C:37EBH         LINE#         31
  C:37F0H         LINE#         32
  C:37F4H         LINE#         34
  C:37F4H         LINE#         35
  C:37FAH         LINE#         36
  -------         ENDPROC       TMR0_CONFIG
  -------         PROC          TMR0_ENABLE
  C:3D44H         LINE#         41
  C:3D44H         LINE#         42
  C:3D44H         LINE#         44
  C:3D44H         LINE#         45
  C:3D4AH         LINE#         47
  C:3D4DH         LINE#         48
  C:3D4FH         LINE#         49
  -------         ENDPROC       TMR0_ENABLE
  -------         PROC          TMR0_DISABLE
  C:3C42H         LINE#         54
  C:3C42H         LINE#         55
  C:3C42H         LINE#         57
  C:3C42H         LINE#         58
  C:3C48H         LINE#         61
  C:3C4CH         LINE#         62
  C:3C4EH         LINE#         64
  C:3C51H         LINE#         65
BL51 BANKED LINKER/LOCATER V6.22.4.0                                                  05/26/2025  16:52:39  PAGE 17


  -------         ENDPROC       TMR0_DISABLE
  -------         PROC          TIMR0_IRQHANDLER
  C:34A3H         LINE#         68
  C:34BAH         LINE#         71
  C:34BAH         LINE#         77
  C:34C0H         LINE#         78
  C:34C0H         LINE#         79
  C:34C4H         LINE#         80
  C:34DDH         LINE#         82
  C:34DDH         LINE#         86
  C:34DDH         LINE#         87
  -------         ENDPROC       TIMR0_IRQHANDLER
  -------         ENDMOD        TMR0

  -------         MODULE        TMR1
  C:0000H         SYMBOL        _ICE_DUMMY_
  D:00A8H         PUBLIC        IE0
  D:00A9H         PUBLIC        IE1
  D:00AAH         PUBLIC        IE2
  D:00ABH         PUBLIC        IE3
  B:00A8H.7       PUBLIC        IE_EA
  D:00B8H         PUBLIC        IP0
  D:00B1H         PUBLIC        IP1
  D:00B2H         PUBLIC        IP2
  D:00B3H         PUBLIC        IP3
  D:00B4H         PUBLIC        IP4
  D:00B5H         PUBLIC        IP5
  D:00B6H         PUBLIC        IP6
  D:00B7H         PUBLIC        IP7
  D:00D1H         PUBLIC        TMR_ALLCON
  C:3745H         PUBLIC        tmr1_config
  C:3C52H         PUBLIC        tmr1_enable
  C:16F2H         PUBLIC        heart_beat_handle
  X:6513H         PUBLIC        tmr1_cnt
  C:33A1H         PUBLIC        TIMR1_IRQHandler
  C:32DDH         SYMBOL        Com0055
  C:32DDH         SYMBOL        L?0086
  C:32ECH         SYMBOL        L?0087
  C:32F5H         SYMBOL        L?0088
  C:3306H         SYMBOL        L?0089
  C:330DH         SYMBOL        L?0090
  C:3310H         SYMBOL        L?0091
  C:3316H         SYMBOL        L?0092
  C:3316H         SYMBOL        L?0093
  C:331EH         SYMBOL        L?0094
  C:331EH         SYMBOL        L?0095
  C:3324H         SYMBOL        L?0096
  C:3335H         SYMBOL        L?0097
  -------         PROC          COM0055
  -------         ENDPROC       COM0055
  -------         PROC          TMR1_CONFIG
  C:3745H         LINE#         15
  C:3745H         LINE#         16
  C:3745H         LINE#         17
  C:374BH         LINE#         18
  C:374EH         LINE#         19
  C:3750H         LINE#         21
BL51 BANKED LINKER/LOCATER V6.22.4.0                                                  05/26/2025  16:52:39  PAGE 18


  C:3753H         LINE#         23
  C:3759H         LINE#         24
  C:375DH         LINE#         25
  C:3761H         LINE#         26
  C:3765H         LINE#         28
  C:376AH         LINE#         29
  C:376EH         LINE#         32
  C:3773H         LINE#         33
  C:3777H         LINE#         35
  C:377DH         LINE#         36
  C:3781H         LINE#         37
  -------         ENDPROC       TMR1_CONFIG
  -------         PROC          TMR1_ENABLE
  C:3C52H         LINE#         42
  C:3C52H         LINE#         43
  C:3C52H         LINE#         45
  C:3C58H         LINE#         46
  C:3C5CH         LINE#         48
  C:3C5FH         LINE#         49
  C:3C61H         LINE#         50
  -------         ENDPROC       TMR1_ENABLE
  -------         PROC          HEART_BEAT_HANDLE
  -------         DO            
  X:650FH         SYMBOL        old_time_ms_cnt
  X:63F1H         SYMBOL        cur_time_ms_cnt
  X:63F5H         SYMBOL        diff_ms_cnt
  -------         ENDDO         
  C:16F2H         LINE#         68
  C:16F2H         LINE#         69
  C:16F2H         LINE#         71
  C:16FEH         LINE#         72
  C:1708H         LINE#         73
  C:1712H         LINE#         74
  C:1727H         LINE#         75
  C:1731H         LINE#         77
  C:1741H         LINE#         78
  C:1741H         LINE#         80
  C:174DH         LINE#         81
  C:174DH         LINE#         83
  C:175CH         LINE#         84
  C:175CH         LINE#         86
  C:1762H         LINE#         87
  C:1773H         LINE#         88
  C:1773H         LINE#         89
  C:177FH         LINE#         90
  C:1786H         LINE#         95
  C:1792H         LINE#         96
  C:179CH         LINE#         97
  C:179EH         LINE#         98
  C:179EH         LINE#         99
  C:179EH         LINE#         101
  C:17ADH         LINE#         102
  C:17ADH         LINE#         104
  C:17B3H         LINE#         105
  C:17C4H         LINE#         106
  C:17C4H         LINE#         107
  C:17D0H         LINE#         108
BL51 BANKED LINKER/LOCATER V6.22.4.0                                                  05/26/2025  16:52:39  PAGE 19


  C:17D7H         LINE#         113
  C:17E3H         LINE#         114
  C:17EDH         LINE#         115
  C:17EFH         LINE#         116
  C:17EFH         LINE#         117
  C:17EFH         LINE#         119
  C:17FAH         LINE#         120
  C:17FAH         LINE#         122
  C:1809H         LINE#         123
  C:1809H         LINE#         125
  C:1814H         LINE#         126
  C:1814H         LINE#         128
  C:1823H         LINE#         129
  C:1823H         LINE#         131
  C:182AH         LINE#         132
  C:182AH         LINE#         134
  C:1830H         LINE#         135
  C:1841H         LINE#         136
  C:1841H         LINE#         138
  C:1845H         LINE#         139
  C:1849H         LINE#         140
  C:1849H         LINE#         141
  C:1849H         LINE#         143
  C:1850H         LINE#         144
  C:1850H         LINE#         147
  C:1856H         LINE#         148
  C:1867H         LINE#         149
  C:1867H         LINE#         151
  C:186BH         LINE#         152
  C:186FH         LINE#         153
  C:186FH         LINE#         154
  C:186FH         LINE#         156
  C:1876H         LINE#         157
  C:1876H         LINE#         160
  C:187CH         LINE#         161
  C:188DH         LINE#         162
  C:188DH         LINE#         164
  C:1891H         LINE#         165
  C:1895H         LINE#         166
  C:1895H         LINE#         167
  C:1895H         LINE#         169
  C:18A0H         LINE#         170
  C:18A0H         LINE#         171
  C:18AAH         LINE#         172
  C:18AAH         LINE#         174
  C:18B8H         LINE#         175
  C:18B8H         LINE#         176
  C:18C4H         LINE#         177
  C:18C4H         LINE#         178
  -------         ENDPROC       HEART_BEAT_HANDLE
  -------         PROC          TIMR1_IRQHANDLER
  C:33A1H         LINE#         181
  C:33B8H         LINE#         184
  C:33B8H         LINE#         205
  C:33BEH         LINE#         206
  C:33BEH         LINE#         207
  C:33C2H         LINE#         209
BL51 BANKED LINKER/LOCATER V6.22.4.0                                                  05/26/2025  16:52:39  PAGE 20


  C:33CEH         LINE#         211
  C:33CEH         LINE#         231
  C:33D7H         LINE#         232
  C:33D7H         LINE#         233
  C:33DAH         LINE#         234
  C:33DAH         LINE#         236
  C:33E3H         LINE#         237
  C:33E3H         LINE#         238
  C:33E6H         LINE#         239
  C:33E6H         LINE#         240
  C:33E6H         LINE#         241
  C:33E6H         LINE#         245
  C:33E6H         LINE#         246
  -------         ENDPROC       TIMR1_IRQHANDLER
  -------         ENDMOD        TMR1

  -------         MODULE        TMR2
  C:0000H         SYMBOL        _ICE_DUMMY_
  D:00A8H         PUBLIC        IE0
  D:00A9H         PUBLIC        IE1
  D:00AAH         PUBLIC        IE2
  D:00ABH         PUBLIC        IE3
  B:00A8H.7       PUBLIC        IE_EA
  D:00B8H         PUBLIC        IP0
  D:00B1H         PUBLIC        IP1
  D:00B2H         PUBLIC        IP2
  D:00B3H         PUBLIC        IP3
  D:00B4H         PUBLIC        IP4
  D:00B5H         PUBLIC        IP5
  D:00B6H         PUBLIC        IP6
  D:00B7H         PUBLIC        IP7
  B:0080H.2       PUBLIC        P02
  B:0090H.5       PUBLIC        P15
  D:00D1H         PUBLIC        TMR_ALLCON
  C:360BH         PUBLIC        tmr2_config
  C:3C10H         PUBLIC        tmr2_enable
  C:2FA3H         PUBLIC        TIMR2_IRQHandler
  C:3AF4H         SYMBOL        Com004B
  C:3AF4H         SYMBOL        L?0076
  C:3B05H         SYMBOL        L?0077
  -------         PROC          COM004B
  -------         ENDPROC       COM004B
  -------         PROC          TMR2_CONFIG
  C:360BH         LINE#         14
  C:360BH         LINE#         15
  C:360BH         LINE#         16
  C:3611H         LINE#         17
  C:3614H         LINE#         18
  C:3616H         LINE#         21
  C:3619H         LINE#         23
  C:3620H         LINE#         24
  C:3622H         LINE#         25
  C:3626H         LINE#         26
  C:362AH         LINE#         29
  C:3630H         LINE#         30
  C:3636H         LINE#         32
  C:363DH         LINE#         33
BL51 BANKED LINKER/LOCATER V6.22.4.0                                                  05/26/2025  16:52:39  PAGE 21


  C:3641H         LINE#         34
  C:3646H         LINE#         35
  C:364AH         LINE#         36
  -------         ENDPROC       TMR2_CONFIG
  -------         PROC          TMR2_ENABLE
  C:3C10H         LINE#         41
  C:3C10H         LINE#         42
  C:3C10H         LINE#         44
  C:3C17H         LINE#         45
  C:3C1BH         LINE#         47
  C:3C1EH         LINE#         48
  C:3C20H         LINE#         49
  -------         ENDPROC       TMR2_ENABLE
  -------         PROC          TIMR2_IRQHANDLER
  -------         DO            
  B:0023H.4       SYMBOL        last_engine_speed_scan_level
  B:0023H.5       SYMBOL        last_speed_scan_level
  -------         ENDDO         
  C:2FA3H         LINE#         68
  C:2FC0H         LINE#         75
  C:2FC0H         LINE#         80
  C:2FC7H         LINE#         81
  C:2FC7H         LINE#         82
  C:2FCBH         LINE#         84
  C:2FCEH         LINE#         85
  C:2FCEH         LINE#         86
  C:2FD1H         LINE#         87
  C:2FD1H         LINE#         89
  C:2FD9H         LINE#         90
  C:2FD9H         LINE#         91
  C:2FE5H         LINE#         92
  C:2FE5H         LINE#         93
  C:2FE5H         LINE#         95
  C:2FE7H         LINE#         96
  C:2FE9H         LINE#         98
  C:2FE9H         LINE#         100
  C:2FEBH         LINE#         101
  C:2FEBH         LINE#         103
  C:2FEEH         LINE#         104
  C:2FEEH         LINE#         105
  C:2FF1H         LINE#         106
  C:2FF1H         LINE#         108
  C:2FF9H         LINE#         109
  C:2FF9H         LINE#         110
  C:3005H         LINE#         111
  C:3005H         LINE#         112
  C:3005H         LINE#         114
  C:3007H         LINE#         115
  C:3009H         LINE#         117
  C:3009H         LINE#         119
  C:300BH         LINE#         120
  C:300BH         LINE#         121
  C:300BH         LINE#         125
  C:300BH         LINE#         126
  -------         ENDPROC       TIMR2_IRQHANDLER
  -------         ENDMOD        TMR2

BL51 BANKED LINKER/LOCATER V6.22.4.0                                                  05/26/2025  16:52:39  PAGE 22


  -------         MODULE        UART0
  C:0000H         SYMBOL        _ICE_DUMMY_
  D:00A8H         PUBLIC        IE0
  D:00A9H         PUBLIC        IE1
  D:00AAH         PUBLIC        IE2
  D:00ABH         PUBLIC        IE3
  B:00A8H.7       PUBLIC        IE_EA
  D:00B8H         PUBLIC        IP0
  D:00B1H         PUBLIC        IP1
  D:00B2H         PUBLIC        IP2
  D:00B3H         PUBLIC        IP3
  D:00B4H         PUBLIC        IP4
  D:00B5H         PUBLIC        IP5
  D:00B6H         PUBLIC        IP6
  D:00B7H         PUBLIC        IP7
  D:00D2H         PUBLIC        UART0_CON0
  D:00D4H         PUBLIC        UART0_STA
  D:00D5H         PUBLIC        UART0_BAUD0
  D:00D6H         PUBLIC        UART0_BAUD1
  D:00D7H         PUBLIC        UART0_DATA
  C:3C72H         PUBLIC        _putchar
  X:6463H         PUBLIC        uart0_recv_buf
  X:6477H         PUBLIC        uart0_recv_len
  X:6478H         PUBLIC        recved_flagbuf
  X:6479H         PUBLIC        recv_frame_cnt
  X:647AH         PUBLIC        flagbuf_valid_instruction
  C:3967H         PUBLIC        uart0_config
  C:3D1DH         PUBLIC        _uart0_sendbyte
  C:2180H         PUBLIC        uart0_scan_handle
  B:0024H.1       SYMBOL        flag_is_recving_data
  X:647BH         SYMBOL        frame_len
  X:647CH         SYMBOL        cur_recv_len
  X:647DH         SYMBOL        blank_index
  C:1F14H         PUBLIC        UART0_IRQHandler
  C:33FBH         SYMBOL        Com005A
  C:33FBH         SYMBOL        L?0091
  C:3404H         SYMBOL        L?0092
  C:340CH         SYMBOL        L?0093
  C:3413H         SYMBOL        L?0094
  C:341BH         SYMBOL        L?0095
  C:342DH         SYMBOL        L?0096
  C:3430H         SYMBOL        L?0097
  C:3438H         SYMBOL        L?0098
  C:3444H         SYMBOL        L?0099
  C:344EH         SYMBOL        L?0100
  -------         PROC          COM005A
  -------         ENDPROC       COM005A
  -------         PROC          _PUTCHAR
  X:6419H         SYMBOL        c
  C:3C72H         LINE#         28
  C:3C77H         LINE#         29
  C:3C77H         LINE#         30
  C:3C7AH         LINE#         31
  C:3C7FH         LINE#         32
  -------         ENDPROC       _PUTCHAR
  -------         PROC          UART0_CONFIG
  C:3967H         LINE#         36
BL51 BANKED LINKER/LOCATER V6.22.4.0                                                  05/26/2025  16:52:39  PAGE 23


  C:3967H         LINE#         37
  C:3967H         LINE#         39
  C:396DH         LINE#         40
  C:3971H         LINE#         41
  C:3975H         LINE#         42
  C:397CH         LINE#         43
  C:3983H         LINE#         57
  C:3986H         LINE#         58
  C:3988H         LINE#         60
  C:398BH         LINE#         61
  C:398EH         LINE#         62
  C:3991H         LINE#         67
  -------         ENDPROC       UART0_CONFIG
  -------         PROC          UART0_IRQHANDLER
  -------         DO            
  X:6420H         SYMBOL        uart0_tmp_val
  -------         ENDDO         
  C:1F14H         LINE#         70
  C:1F31H         LINE#         72
  C:1F36H         LINE#         75
  C:1F36H         LINE#         80
  C:1F3EH         LINE#         81
  C:1F3EH         LINE#         83
  C:1F41H         LINE#         85
  C:1F51H         LINE#         87
  C:1F51H         LINE#         91
  C:1F51H         LINE#         92
  C:1F51H         LINE#         93
  C:1F54H         LINE#         95
  C:1F54H         LINE#         98
  C:1F5BH         LINE#         99
  C:1F5BH         LINE#         102
  C:1F5DH         LINE#         103
  C:1F5DH         LINE#         104
  C:1F60H         LINE#         105
  C:1F63H         LINE#         106
  C:1F6DH         LINE#         107
  C:1F70H         LINE#         108
  C:1F70H         LINE#         110
  C:1F77H         LINE#         111
  C:1F77H         LINE#         113
  C:1F7FH         LINE#         116
  C:1F7FH         LINE#         119
  C:1F88H         LINE#         120
  C:1F88H         LINE#         122
  C:1FB7H         LINE#         124
  C:1FC1H         LINE#         127
  C:1FCEH         LINE#         129
  C:1FCEH         LINE#         131
  C:1FE1H         LINE#         133
  C:1FE3H         LINE#         134
  C:1FE3H         LINE#         135
  C:1FE6H         LINE#         137
  C:1FECH         LINE#         138
  C:1FF2H         LINE#         140
  C:200BH         LINE#         141
  C:201AH         LINE#         142
BL51 BANKED LINKER/LOCATER V6.22.4.0                                                  05/26/2025  16:52:39  PAGE 24


  C:201AH         LINE#         143
  C:2024H         LINE#         144
  C:2024H         LINE#         169
  C:2024H         LINE#         170
  C:2027H         LINE#         171
  C:2031H         LINE#         172
  C:2031H         LINE#         174
  C:2031H         LINE#         175
  C:2031H         LINE#         177
  C:2031H         LINE#         182
  C:2031H         LINE#         186
  C:2031H         LINE#         187
  -------         ENDPROC       UART0_IRQHANDLER
  -------         PROC          _UART0_SENDBYTE
  D:0007H         SYMBOL        senddata
  C:3D1DH         LINE#         190
  C:3D1DH         LINE#         191
  C:3D1DH         LINE#         192
  C:3D22H         LINE#         194
  C:3D24H         LINE#         195
  C:3D29H         LINE#         197
  -------         ENDPROC       _UART0_SENDBYTE
  -------         PROC          UART0_SCAN_HANDLE
  -------         DO            
  X:653AH         SYMBOL        i
  X:653BH         SYMBOL        checksum
  B:0024H.0       SYMBOL        __flag_is_crc_or_len_err
  -------         DO            
  X:653CH         SYMBOL        __loop_crc_cnt
  -------         ENDDO         
  -------         ENDDO         
  C:2180H         LINE#         213
  C:2180H         LINE#         214
  C:2180H         LINE#         215
  C:2185H         LINE#         216
  C:2187H         LINE#         217
  C:2189H         LINE#         221
  C:219AH         LINE#         222
  C:219AH         LINE#         226
  C:219DH         LINE#         227
  C:21A7H         LINE#         230
  C:21ACH         LINE#         231
  C:21B0H         LINE#         232
  C:21B3H         LINE#         266
  C:21B3H         LINE#         270
  C:21C5H         LINE#         271
  C:21C5H         LINE#         272
  C:21D1H         LINE#         273
  C:21D1H         LINE#         277
  C:21EEH         LINE#         278
  C:21EEH         LINE#         287
  C:21F7H         LINE#         288
  C:21F7H         LINE#         289
  C:2208H         LINE#         292
  C:2208H         LINE#         294
  C:2208H         LINE#         295
  C:220DH         LINE#         296
BL51 BANKED LINKER/LOCATER V6.22.4.0                                                  05/26/2025  16:52:39  PAGE 25


  C:2211H         LINE#         297
  C:2222H         LINE#         298
  C:2222H         LINE#         299
  C:223EH         LINE#         300
  C:2244H         LINE#         303
  C:2249H         LINE#         304
  C:2268H         LINE#         305
  C:2268H         LINE#         307
  C:226AH         LINE#         308
  C:226AH         LINE#         309
  C:226AH         LINE#         311
  C:226DH         LINE#         312
  C:226DH         LINE#         338
  C:226FH         LINE#         339
  C:2279H         LINE#         340
  C:2279H         LINE#         341
  C:228AH         LINE#         342
  C:228AH         LINE#         345
  C:229AH         LINE#         346
  C:229AH         LINE#         347
  C:22A3H         LINE#         348
  -------         ENDPROC       UART0_SCAN_HANDLE
  -------         ENDMOD        UART0

  -------         MODULE        ADC
  C:0000H         SYMBOL        _ICE_DUMMY_
  D:0093H         PUBLIC        ADC_DATAH0
  D:0094H         PUBLIC        ADC_DATAL0
  D:0099H         PUBLIC        ADC_CHS0
  X:6540H         PUBLIC        adc_val
  C:3B30H         PUBLIC        adc_config
  C:35C9H         PUBLIC        _adc_sel_pin
  C:0027H         PUBLIC        adc_single_convert
  C:2460H         PUBLIC        adc_getval
  C:3B68H         SYMBOL        Com0012
  C:3B68H         SYMBOL        L?0019
  C:3B68H         SYMBOL        L?0020
  C:3B74H         SYMBOL        L?0021
  C:3B7DH         SYMBOL        L?0022
  -------         PROC          COM0012
  -------         ENDPROC       COM0012
  -------         PROC          ADC_CONFIG
  C:3B30H         LINE#         7
  C:3B30H         LINE#         8
  C:3B30H         LINE#         10
  C:3B36H         LINE#         12
  C:3B3AH         LINE#         14
  C:3B3FH         LINE#         16
  C:3B43H         LINE#         23
  C:3B43H         LINE#         24
  C:3B46H         LINE#         25
  C:3B4CH         LINE#         28
  -------         ENDPROC       ADC_CONFIG
  -------         PROC          _ADC_SEL_PIN
  D:0007H         SYMBOL        adc_pin
  C:35C9H         LINE#         32
  C:35C9H         LINE#         33
BL51 BANKED LINKER/LOCATER V6.22.4.0                                                  05/26/2025  16:52:39  PAGE 26


  C:35C9H         LINE#         34
  C:35D8H         LINE#         35
  C:35D8H         LINE#         36
  C:35D8H         LINE#         37
  C:35DFH         LINE#         38
  C:35E3H         LINE#         39
  C:35E6H         LINE#         41
  C:35E8H         LINE#         44
  C:35E8H         LINE#         45
  C:35E8H         LINE#         46
  C:35EBH         LINE#         47
  C:35EEH         LINE#         49
  C:35F0H         LINE#         51
  C:35F0H         LINE#         52
  C:35F0H         LINE#         53
  C:35F3H         LINE#         54
  C:35F6H         LINE#         56
  C:35F8H         LINE#         58
  C:35F8H         LINE#         59
  C:35F8H         LINE#         60
  C:35FBH         LINE#         61
  C:35FEH         LINE#         63
  C:35FEH         LINE#         64
  C:35FEH         LINE#         66
  C:3604H         LINE#         69
  -------         ENDPROC       _ADC_SEL_PIN
  -------         PROC          ADC_SINGLE_CONVERT
  C:0027H         LINE#         73
  C:0027H         LINE#         74
  C:0027H         LINE#         75
  C:002DH         LINE#         76
  C:0033H         LINE#         78
  C:0036H         LINE#         79
  C:0049H         LINE#         80
  -------         ENDPROC       ADC_SINGLE_CONVERT
  -------         PROC          ADC_GETVAL
  -------         DO            
  X:64F2H         SYMBOL        adc_val_tmp
  X:64F4H         SYMBOL        adc_val_sum
  X:64F8H         SYMBOL        get_adcmax
  X:64FAH         SYMBOL        get_adcmin
  X:64FCH         SYMBOL        i
  -------         ENDDO         
  C:2460H         LINE#         83
  C:2460H         LINE#         84
  C:2460H         LINE#         85
  C:2467H         LINE#         86
  C:246FH         LINE#         87
  C:2476H         LINE#         88
  C:247CH         LINE#         89
  C:247FH         LINE#         91
  C:2480H         LINE#         92
  C:2480H         LINE#         93
  C:248BH         LINE#         94
  C:2494H         LINE#         95
  C:2494H         LINE#         96
  C:24AAH         LINE#         97
BL51 BANKED LINKER/LOCATER V6.22.4.0                                                  05/26/2025  16:52:39  PAGE 27


  C:24B2H         LINE#         98
  C:24C1H         LINE#         99
  C:24D0H         LINE#         100
  C:24E8H         LINE#         101
  C:24F4H         LINE#         103
  C:250CH         LINE#         104
  C:2523H         LINE#         105
  C:2533H         LINE#         107
  C:2533H         LINE#         108
  -------         ENDPROC       ADC_GETVAL
  -------         ENDMOD        ADC

  -------         MODULE        FLASH
  C:0000H         SYMBOL        _ICE_DUMMY_
  D:00A4H         PUBLIC        FLASH_CON
  D:00A5H         PUBLIC        FLASH_STA
  D:00A6H         PUBLIC        FLASH_DATA
  D:00AEH         PUBLIC        FLASH_PASSWORD
  D:00AFH         PUBLIC        FLASH_ADDR
  C:3C21H         PUBLIC        _flash_erase_sector
  C:3835H         PUBLIC        _flash_write
  C:38A1H         PUBLIC        _flash_read
  -------         PROC          _FLASH_ERASE_SECTOR
  D:0007H         SYMBOL        addr
  C:3C21H         LINE#         11
  C:3C21H         LINE#         12
  C:3C21H         LINE#         13
  C:3C24H         LINE#         14
  C:3C26H         LINE#         15
  C:3C29H         LINE#         16
  C:3C2CH         LINE#         18
  C:3C31H         LINE#         20
  -------         ENDPROC       _FLASH_ERASE_SECTOR
  -------         PROC          _FLASH_WRITE
  D:0007H         SYMBOL        addr
  X:6526H         SYMBOL        p_data
  X:6529H         SYMBOL        len
  C:3835H         LINE#         29
  C:383BH         LINE#         30
  C:383BH         LINE#         31
  C:383EH         LINE#         32
  C:3840H         LINE#         34
  C:3849H         LINE#         35
  C:3849H         LINE#         36
  C:384EH         LINE#         38
  C:385DH         LINE#         39
  C:3860H         LINE#         40
  C:3863H         LINE#         42
  C:3869H         LINE#         43
  C:386BH         LINE#         44
  -------         ENDPROC       _FLASH_WRITE
  -------         PROC          _FLASH_READ
  D:0007H         SYMBOL        addr
  X:63F2H         SYMBOL        p_data
  X:63F5H         SYMBOL        len
  C:38A1H         LINE#         53
  C:38A7H         LINE#         54
BL51 BANKED LINKER/LOCATER V6.22.4.0                                                  05/26/2025  16:52:39  PAGE 28


  C:38A7H         LINE#         55
  C:38ADH         LINE#         56
  C:38ADH         LINE#         57
  C:38CCH         LINE#         58
  C:38D2H         LINE#         59
  C:38D4H         LINE#         60
  -------         ENDPROC       _FLASH_READ
  -------         ENDMOD        FLASH

  -------         MODULE        AIP1302
  C:0000H         SYMBOL        _ICE_DUMMY_
  B:0090H.6       PUBLIC        P16
  B:0090H.7       PUBLIC        P17
  B:00A0H.4       PUBLIC        P24
  C:2CE1H         PUBLIC        ___aip1302_read_byte
  C:000FH         PUBLIC        aip1302_is_running
  C:3197H         PUBLIC        aip1302_config
  C:3BE4H         PUBLIC        _aip1302_read_byte
  C:291EH         PUBLIC        _aip1302_write_byte
  C:368AH         PUBLIC        aip1302_update_time
  C:353EH         PUBLIC        aip1302_read_all
  C:22A4H         PUBLIC        aip1302_test
  C:364BH         PUBLIC        aip1302_update_all_data
  C:3B83H         SYMBOL        _reverse_u8
  C:3208H         SYMBOL        ___aip1302_convert_read_byte
  C:2D73H         SYMBOL        ___aip1302_write_byte
  C:3939H         SYMBOL        Com0047
  C:3939H         SYMBOL        L?0072
  C:393BH         SYMBOL        L?0073
  C:394BH         SYMBOL        L?0078
  C:3956H         SYMBOL        L?0080
  C:3960H         SYMBOL        L?0081
  -------         PROC          COM0047
  -------         ENDPROC       COM0047
  -------         PROC          AIP1302_CONFIG
  -------         DO            
  D:0007H         SYMBOL        ret
  -------         ENDDO         
  C:3197H         LINE#         6
  C:3197H         LINE#         7
  C:3197H         LINE#         8
  C:3199H         LINE#         12
  C:319FH         LINE#         13
  C:31A3H         LINE#         14
  C:31A8H         LINE#         16
  C:31ACH         LINE#         17
  C:31B0H         LINE#         18
  C:31B5H         LINE#         20
  C:31B5H         LINE#         21
  C:31B5H         LINE#         22
  C:31B8H         LINE#         24
  C:31BAH         LINE#         25
  C:31BCH         LINE#         30
  C:31BFH         LINE#         31
  C:31C4H         LINE#         32
  C:31C4H         LINE#         34
  C:31CBH         LINE#         35
BL51 BANKED LINKER/LOCATER V6.22.4.0                                                  05/26/2025  16:52:39  PAGE 29


  C:31CDH         LINE#         37
  C:31CDH         LINE#         39
  C:31D4H         LINE#         41
  C:31DBH         LINE#         42
  C:31E2H         LINE#         43
  C:31E9H         LINE#         44
  C:31F0H         LINE#         45
  C:31F7H         LINE#         46
  C:31FEH         LINE#         47
  C:3205H         LINE#         48
  C:3205H         LINE#         51
  -------         ENDPROC       AIP1302_CONFIG
  -------         PROC          _REVERSE_U8
  D:0007H         SYMBOL        arg
  -------         DO            
  D:0006H         SYMBOL        tmp
  D:0005H         SYMBOL        i
  -------         ENDDO         
  C:3B83H         LINE#         55
  C:3B83H         LINE#         56
  C:3B83H         LINE#         58
  C:3B85H         LINE#         61
  C:3B85H         LINE#         62
  C:3B85H         LINE#         63
  C:3B89H         LINE#         64
  C:3B8DH         LINE#         65
  C:3B8DH         LINE#         66
  C:3B91H         LINE#         67
  C:3B91H         LINE#         69
  C:3B91H         LINE#         70
  C:3B91H         LINE#         71
  C:3B95H         LINE#         72
  C:3B9AH         LINE#         74
  C:3B9CH         LINE#         75
  -------         ENDPROC       _REVERSE_U8
  -------         PROC          ___AIP1302_CONVERT_READ_BYTE
  D:0004H         SYMBOL        cmd
  D:0005H         SYMBOL        byte
  -------         DO            
  D:0007H         SYMBOL        tmp
  X:63F2H         SYMBOL        i
  -------         DO            
  X:63F3H         SYMBOL        tens_place
  X:63F4H         SYMBOL        one_place
  -------         ENDDO         
  -------         ENDDO         
  C:3208H         LINE#         78
  C:320AH         LINE#         79
  C:320AH         LINE#         80
  C:320BH         LINE#         81
  C:320FH         LINE#         84
  C:3214H         LINE#         93
  C:3232H         LINE#         94
  C:3232H         LINE#         95
  C:3237H         LINE#         96
  C:3239H         LINE#         99
  C:3242H         LINE#         100
BL51 BANKED LINKER/LOCATER V6.22.4.0                                                  05/26/2025  16:52:39  PAGE 30


  C:3242H         LINE#         103
  C:3246H         LINE#         104
  C:3248H         LINE#         105
  C:3251H         LINE#         106
  C:3251H         LINE#         108
  C:3255H         LINE#         109
  C:3257H         LINE#         110
  C:325BH         LINE#         111
  C:325BH         LINE#         113
  C:325FH         LINE#         114
  C:325FH         LINE#         116
  C:3268H         LINE#         117
  C:326EH         LINE#         118
  C:3275H         LINE#         119
  C:3275H         LINE#         121
  C:3275H         LINE#         122
  -------         ENDPROC       ___AIP1302_CONVERT_READ_BYTE
  C:2D55H         SYMBOL        L?0075
  C:2D5FH         SYMBOL        L?0076
  -------         PROC          ___AIP1302_READ_BYTE
  X:63F2H         SYMBOL        cmd
  -------         DO            
  X:63F3H         SYMBOL        recv_data
  X:63F4H         SYMBOL        i
  -------         ENDDO         
  C:2CE1H         LINE#         125
  C:2CE6H         LINE#         126
  C:2CE6H         LINE#         127
  C:2CE9H         LINE#         128
  C:2CE9H         LINE#         131
  C:2CE9H         LINE#         132
  C:2CE9H         LINE#         133
  C:2CECH         LINE#         135
  C:2CECH         LINE#         136
  C:2CECH         LINE#         137
  C:2CECH         LINE#         138
  C:2CF2H         LINE#         140
  C:2CF7H         LINE#         141
  C:2CF7H         LINE#         142
  C:2CF7H         LINE#         143
  C:2CFAH         LINE#         144
  C:2D0DH         LINE#         145
  C:2D0DH         LINE#         146
  C:2D0FH         LINE#         147
  C:2D11H         LINE#         149
  C:2D11H         LINE#         150
  C:2D13H         LINE#         151
  C:2D13H         LINE#         152
  C:2D1AH         LINE#         154
  C:2D1AH         LINE#         155
  C:2D1AH         LINE#         156
  C:2D1FH         LINE#         159
  C:2D25H         LINE#         160
  C:2D2BH         LINE#         162
  C:2D30H         LINE#         163
  C:2D30H         LINE#         164
  C:2D37H         LINE#         165
BL51 BANKED LINKER/LOCATER V6.22.4.0                                                  05/26/2025  16:52:39  PAGE 31


  C:2D37H         LINE#         166
  C:2D3AH         LINE#         167
  C:2D3DH         LINE#         168
  C:2D3DH         LINE#         169
  C:2D44H         LINE#         170
  C:2D44H         LINE#         172
  C:2D44H         LINE#         173
  C:2D44H         LINE#         174
  C:2D44H         LINE#         175
  C:2D44H         LINE#         176
  C:2D49H         LINE#         178
  C:2D4BH         LINE#         179
  C:2D4DH         LINE#         180
  C:2D4FH         LINE#         182
  C:2D54H         LINE#         183
  -------         ENDPROC       ___AIP1302_READ_BYTE
  -------         PROC          _AIP1302_READ_BYTE
  X:63F1H         SYMBOL        cmd
  -------         DO            
  D:0006H         SYMBOL        recv_data
  -------         ENDDO         
  C:3BE4H         LINE#         192
  C:3BE9H         LINE#         193
  C:3BE9H         LINE#         194
  C:3BEBH         LINE#         195
  C:3BF0H         LINE#         196
  -------         ENDPROC       _AIP1302_READ_BYTE
  C:2DE8H         SYMBOL        L?0070
  C:2DF9H         SYMBOL        L?0077
  -------         PROC          ___AIP1302_WRITE_BYTE
  X:63F5H         SYMBOL        cmd
  X:63F6H         SYMBOL        byte
  -------         DO            
  X:63F7H         SYMBOL        i
  -------         ENDDO         
  C:2D73H         LINE#         206
  C:2D7BH         LINE#         207
  C:2D7BH         LINE#         208
  C:2D7CH         LINE#         211
  C:2D7CH         LINE#         212
  C:2D7CH         LINE#         213
  C:2D7FH         LINE#         215
  C:2D7FH         LINE#         216
  C:2D7FH         LINE#         217
  C:2D7FH         LINE#         218
  C:2D85H         LINE#         220
  C:2D8AH         LINE#         221
  C:2D8AH         LINE#         222
  C:2D8AH         LINE#         223
  C:2D8DH         LINE#         224
  C:2DA0H         LINE#         225
  C:2DA0H         LINE#         226
  C:2DA2H         LINE#         227
  C:2DA4H         LINE#         229
  C:2DA4H         LINE#         230
  C:2DA6H         LINE#         231
  C:2DA6H         LINE#         232
BL51 BANKED LINKER/LOCATER V6.22.4.0                                                  05/26/2025  16:52:39  PAGE 32


  C:2DA6H         LINE#         233
  C:2DA6H         LINE#         234
  C:2DA9H         LINE#         235
  C:2DAEH         LINE#         237
  C:2DB3H         LINE#         238
  C:2DB3H         LINE#         239
  C:2DB3H         LINE#         240
  C:2DB6H         LINE#         241
  C:2DCCH         LINE#         242
  C:2DCCH         LINE#         243
  C:2DCEH         LINE#         244
  C:2DD0H         LINE#         246
  C:2DD0H         LINE#         247
  C:2DD2H         LINE#         248
  C:2DD2H         LINE#         249
  C:2DD2H         LINE#         250
  C:2DD2H         LINE#         251
  C:2DD5H         LINE#         252
  C:2DDAH         LINE#         254
  C:2DDCH         LINE#         255
  C:2DE3H         LINE#         256
  C:2DE5H         LINE#         257
  C:2DE7H         LINE#         258
  -------         ENDPROC       ___AIP1302_WRITE_BYTE
  -------         PROC          AIP1302_IS_RUNNING
  -------         DO            
  D:0007H         SYMBOL        recv_data
  -------         ENDDO         
  C:000FH         LINE#         266
  C:000FH         LINE#         267
  C:000FH         LINE#         268
  C:0014H         LINE#         270
  C:0018H         LINE#         271
  C:0018H         LINE#         273
  C:001BH         LINE#         274
  C:001BH         LINE#         276
  C:001BH         LINE#         278
  C:001DH         LINE#         279
  C:001DH         LINE#         280
  -------         ENDPROC       AIP1302_IS_RUNNING
  -------         PROC          _AIP1302_WRITE_BYTE
  X:63F1H         SYMBOL        cmd
  D:0005H         SYMBOL        byte
  -------         DO            
  X:63F2H         SYMBOL        tmp
  -------         DO            
  X:63F3H         SYMBOL        tens_place
  X:63F4H         SYMBOL        one_place
  -------         ENDDO         
  -------         ENDDO         
  C:291EH         LINE#         293
  C:2923H         LINE#         294
  C:2923H         LINE#         295
  C:2926H         LINE#         303
  C:2948H         LINE#         304
  C:2948H         LINE#         305
  C:294DH         LINE#         306
BL51 BANKED LINKER/LOCATER V6.22.4.0                                                  05/26/2025  16:52:39  PAGE 33


  C:294FH         LINE#         307
  C:2959H         LINE#         308
  C:2959H         LINE#         309
  C:2960H         LINE#         310
  C:2960H         LINE#         311
  C:296FH         LINE#         314
  C:297CH         LINE#         318
  C:2989H         LINE#         319
  C:2989H         LINE#         320
  C:2990H         LINE#         321
  C:2992H         LINE#         322
  C:299FH         LINE#         323
  C:299FH         LINE#         326
  C:29A6H         LINE#         327
  C:29A8H         LINE#         328
  C:29AFH         LINE#         329
  C:29AFH         LINE#         331
  C:29B4H         LINE#         332
  C:29B4H         LINE#         333
  C:29B4H         LINE#         336
  C:29BBH         LINE#         337
  C:29C6H         LINE#         339
  -------         ENDPROC       _AIP1302_WRITE_BYTE
  C:2363H         SYMBOL        L?0069
  C:236EH         SYMBOL        L?0074
  C:2379H         SYMBOL        L?0079
  -------         PROC          AIP1302_TEST
  -------         DO            
  D:0007H         SYMBOL        ret
  X:653DH         SYMBOL        cnt
  X:653FH         SYMBOL        flag
  -------         ENDDO         
  C:22A4H         LINE#         343
  C:22A4H         LINE#         344
  C:22A4H         LINE#         347
  C:22A5H         LINE#         351
  C:22AEH         LINE#         353
  C:22BDH         LINE#         354
  C:22BDH         LINE#         355
  C:22C1H         LINE#         356
  C:22C6H         LINE#         358
  C:22CDH         LINE#         360
  C:22D2H         LINE#         362
  C:22D9H         LINE#         364
  C:22DEH         LINE#         366
  C:22E5H         LINE#         371
  C:22EAH         LINE#         373
  C:22F1H         LINE#         375
  C:22F6H         LINE#         377
  C:22FDH         LINE#         379
  C:2302H         LINE#         380
  C:2309H         LINE#         381
  C:2312H         LINE#         382
  C:2312H         LINE#         384
  C:2327H         LINE#         385
  C:2327H         LINE#         386
  C:232BH         LINE#         387
BL51 BANKED LINKER/LOCATER V6.22.4.0                                                  05/26/2025  16:52:39  PAGE 34


  C:2332H         LINE#         388
  C:2339H         LINE#         389
  C:2340H         LINE#         390
  C:2347H         LINE#         391
  C:234EH         LINE#         392
  C:2355H         LINE#         393
  C:235CH         LINE#         394
  C:2362H         LINE#         395
  C:2362H         LINE#         396
  -------         ENDPROC       AIP1302_TEST
  -------         PROC          AIP1302_UPDATE_ALL_DATA
  X:6517H         SYMBOL        aip1302_saveinfo
  C:364BH         LINE#         401
  C:364BH         LINE#         402
  C:364BH         LINE#         403
  C:3655H         LINE#         404
  C:365FH         LINE#         405
  C:3669H         LINE#         406
  C:3673H         LINE#         407
  C:367DH         LINE#         408
  -------         ENDPROC       AIP1302_UPDATE_ALL_DATA
  -------         PROC          AIP1302_UPDATE_TIME
  X:651EH         SYMBOL        aip1302_saveinfo
  C:368AH         LINE#         414
  C:368AH         LINE#         415
  C:368AH         LINE#         416
  C:3697H         LINE#         417
  C:36A1H         LINE#         418
  C:36ABH         LINE#         420
  C:36B5H         LINE#         421
  C:36BFH         LINE#         422
  -------         ENDPROC       AIP1302_UPDATE_TIME
  -------         PROC          AIP1302_READ_ALL
  C:353EH         LINE#         442
  C:353EH         LINE#         443
  C:353EH         LINE#         444
  C:3548H         LINE#         445
  C:3552H         LINE#         446
  C:355CH         LINE#         447
  C:3566H         LINE#         448
  C:3570H         LINE#         449
  C:3583H         LINE#         451
  -------         ENDPROC       AIP1302_READ_ALL
  -------         ENDMOD        AIP1302

  -------         MODULE        UART1
  C:0000H         SYMBOL        _ICE_DUMMY_
  -------         ENDMOD        UART1

  -------         MODULE        KEY_DRIVER
  C:0000H         SYMBOL        _ICE_DUMMY_
  C:1C33H         PUBLIC        _key_driver_scan
  X:652AH         SYMBOL        is_key_active
  X:652BH         PUBLIC        scan_para
  C:3A56H         SYMBOL        Com0023
  C:3A56H         SYMBOL        L?0036
  C:3A5AH         SYMBOL        L?0037
BL51 BANKED LINKER/LOCATER V6.22.4.0                                                  05/26/2025  16:52:39  PAGE 35


  C:3A60H         SYMBOL        L?0038
  C:3A63H         SYMBOL        L?0039
  C:3A67H         SYMBOL        L?0040
  C:3A6DH         SYMBOL        L?0041
  C:3A70H         SYMBOL        L?0042
  -------         PROC          COM0023
  -------         ENDPROC       COM0023
  -------         PROC          _KEY_DRIVER_SCAN
  D:0001H         SYMBOL        _scan_para
  -------         DO            
  X:6542H         SYMBOL        key_event
  D:0007H         SYMBOL        cur_key_value
  X:6543H         SYMBOL        key_value
  C:1DADH         SYMBOL        _notify
  C:1DCDH         SYMBOL        _scan_end
  -------         ENDDO         
  C:1C33H         LINE#         16
  C:1C33H         LINE#         18
  C:1C33H         LINE#         23
  C:1C38H         LINE#         24
  C:1C3AH         LINE#         25
  C:1C3EH         LINE#         29
  C:1C44H         LINE#         32
  C:1C57H         LINE#         33
  C:1C57H         LINE#         35
  C:1C57H         LINE#         37
  C:1C61H         LINE#         39
  C:1C6AH         LINE#         45
  C:1C6EH         LINE#         46
  C:1C6EH         LINE#         47
  C:1C74H         LINE#         48
  C:1C76H         LINE#         49
  C:1C7CH         LINE#         50
  C:1C7CH         LINE#         51
  C:1C7FH         LINE#         52
  C:1C7FH         LINE#         82
  C:1C93H         LINE#         83
  C:1C93H         LINE#         85
  C:1C9AH         LINE#         86
  C:1CA0H         LINE#         88
  C:1CA0H         LINE#         91
  C:1CB1H         LINE#         92
  C:1CB1H         LINE#         93
  C:1CBCH         LINE#         95
  C:1CBCH         LINE#         98
  C:1CC8H         LINE#         99
  C:1CC8H         LINE#         106
  C:1CCCH         LINE#         107
  C:1CCCH         LINE#         108
  C:1CD3H         LINE#         109
  C:1CD3H         LINE#         110
  C:1CD5H         LINE#         111
  C:1CDBH         LINE#         112
  C:1CDEH         LINE#         114
  C:1CDEH         LINE#         117
  C:1CDEH         LINE#         118
  C:1CE6H         LINE#         119
BL51 BANKED LINKER/LOCATER V6.22.4.0                                                  05/26/2025  16:52:39  PAGE 36


  C:1CE6H         LINE#         120
  C:1CE9H         LINE#         122
  C:1CE9H         LINE#         127
  C:1CF1H         LINE#         128
  C:1CFDH         LINE#         129
  C:1CFDH         LINE#         130
  C:1D02H         LINE#         131
  C:1D06H         LINE#         132
  C:1D09H         LINE#         134
  C:1D09H         LINE#         135
  C:1D0FH         LINE#         136
  C:1D0FH         LINE#         137
  C:1D0FH         LINE#         139
  C:1D11H         LINE#         144
  C:1D11H         LINE#         146
  C:1D11H         LINE#         151
  C:1D15H         LINE#         152
  C:1D15H         LINE#         154
  C:1D26H         LINE#         155
  C:1D26H         LINE#         159
  C:1D37H         LINE#         160
  C:1D37H         LINE#         175
  C:1D48H         LINE#         176
  C:1D48H         LINE#         177
  C:1D4BH         LINE#         178
  C:1D4DH         LINE#         180
  C:1D4DH         LINE#         181
  C:1D50H         LINE#         183
  C:1D50H         LINE#         184
  C:1D5AH         LINE#         186
  C:1D5CH         LINE#         188
  C:1D5CH         LINE#         190
  C:1D5CH         LINE#         191
  C:1D67H         LINE#         192
  C:1D6AH         LINE#         194
  C:1D6AH         LINE#         195
  C:1D6AH         LINE#         197
  C:1D6AH         LINE#         198
  C:1D6AH         LINE#         200
  C:1D6AH         LINE#         201
  C:1D6AH         LINE#         203
  C:1D6AH         LINE#         205
  C:1D75H         LINE#         206
  C:1D75H         LINE#         207
  C:1D7DH         LINE#         208
  C:1D7DH         LINE#         212
  C:1D83H         LINE#         213
  C:1D83H         LINE#         214
  C:1D89H         LINE#         219
  C:1D8BH         LINE#         220
  C:1D97H         LINE#         221
  C:1D97H         LINE#         222
  C:1D99H         LINE#         223
  C:1DA8H         LINE#         225
  C:1DA8H         LINE#         227
  C:1DA8H         LINE#         228
  C:1DA8H         LINE#         230
BL51 BANKED LINKER/LOCATER V6.22.4.0                                                  05/26/2025  16:52:39  PAGE 37


  C:1DA8H         LINE#         233
  C:1DADH         LINE#         234
  C:1DADH         LINE#         236
  C:1DADH         LINE#         237
  C:1DADH         LINE#         239
  C:1DADH         LINE#         242
  C:1DADH         LINE#         244
  C:1DADH         LINE#         245
  C:1DB1H         LINE#         246
  C:1DB9H         LINE#         248
  C:1DC3H         LINE#         249
  C:1DCDH         LINE#         252
  C:1DCDH         LINE#         261
  C:1DCDH         LINE#         263
  C:1DCDH         LINE#         264
  C:1DD7H         LINE#         267
  -------         ENDPROC       _KEY_DRIVER_SCAN
  -------         ENDMOD        KEY_DRIVER

  -------         MODULE        MAIN
  C:0000H         SYMBOL        _ICE_DUMMY_
  D:00D9H         PUBLIC        WDT_KEY
  B:00A0H.3       PUBLIC        P23
  C:37FBH         PUBLIC        user_init
  C:38D5H         PUBLIC        main
  -------         PROC          USER_INIT
  C:37FBH         LINE#         298
  C:37FBH         LINE#         299
  C:37FBH         LINE#         307
  C:3801H         LINE#         308
  C:3805H         LINE#         309
  C:380AH         LINE#         311
  C:380DH         LINE#         313
  C:3810H         LINE#         314
  C:3813H         LINE#         315
  C:3816H         LINE#         317
  C:3819H         LINE#         319
  C:381CH         LINE#         320
  C:381FH         LINE#         322
  C:3822H         LINE#         325
  C:3825H         LINE#         326
  C:3828H         LINE#         328
  C:382BH         LINE#         329
  C:382EH         LINE#         331
  -------         ENDPROC       USER_INIT
  -------         PROC          MAIN
  C:38D5H         LINE#         334
  C:38D5H         LINE#         335
  C:38D5H         LINE#         337
  C:38D8H         LINE#         342
  C:38DBH         LINE#         343
  C:38E2H         LINE#         344
  C:38E5H         LINE#         347
  C:38E8H         LINE#         359
  C:38F1H         LINE#         362
  C:38F3H         LINE#         363
  C:38FAH         LINE#         364
BL51 BANKED LINKER/LOCATER V6.22.4.0                                                  05/26/2025  16:52:39  PAGE 38


  C:38FCH         LINE#         406
  C:38FCH         LINE#         407
  C:38FCH         LINE#         430
  C:38FFH         LINE#         451
  C:3902H         LINE#         453
  C:3905H         LINE#         454
  -------         ENDPROC       MAIN
  -------         ENDMOD        MAIN

  -------         MODULE        FUN_INFO
  C:0000H         SYMBOL        _ICE_DUMMY_
  X:6421H         PUBLIC        fun_info
  C:3BB5H         PUBLIC        fun_info_init
  C:3C80H         PUBLIC        fun_info_save
  C:3D50H         SYMBOL        Com0003
  C:3D50H         SYMBOL        L?0004
  -------         PROC          COM0003
  -------         ENDPROC       COM0003
  -------         PROC          FUN_INFO_INIT
  C:3BB5H         LINE#         7
  C:3BB5H         LINE#         8
  C:3BB5H         LINE#         9
  C:3BC4H         LINE#         10
  -------         ENDPROC       FUN_INFO_INIT
  -------         PROC          FUN_INFO_SAVE
  C:3C80H         LINE#         14
  C:3C80H         LINE#         15
  C:3C80H         LINE#         16
  C:3C85H         LINE#         17
  -------         ENDPROC       FUN_INFO_SAVE
  -------         ENDMOD        FUN_INFO

  -------         MODULE        SEND_DATA
  C:0000H         SYMBOL        _ICE_DUMMY_
  C:14F2H         PUBLIC        _send_data
  C:36C9H         SYMBOL        Com000F
  C:36C9H         SYMBOL        L?0016
  C:36D8H         SYMBOL        L?0019
  C:36E3H         SYMBOL        L?0020
  C:36EAH         SYMBOL        L?0021
  C:36EDH         SYMBOL        L?0022
  C:36F4H         SYMBOL        L?0023
  C:36F5H         SYMBOL        L?0024
  C:36FBH         SYMBOL        L?0025
  C:36FBH         SYMBOL        L?0026
  C:3701H         SYMBOL        L?0027
  C:3701H         SYMBOL        L?0028
  -------         PROC          COM000F
  -------         ENDPROC       COM000F
  C:16B4H         SYMBOL        L?0014
  C:16CCH         SYMBOL        L?0017
  C:16DEH         SYMBOL        L?0018
  C:16E8H         SYMBOL        L?0029
  -------         PROC          _SEND_DATA
  X:64FDH         SYMBOL        instruct
  X:64FEH         SYMBOL        send_data
  -------         DO            
BL51 BANKED LINKER/LOCATER V6.22.4.0                                                  05/26/2025  16:52:39  PAGE 39


  X:6502H         SYMBOL        check_num
  -------         ENDDO         
  C:14F2H         LINE#         9
  C:14F7H         LINE#         10
  C:14F7H         LINE#         11
  C:1501H         LINE#         13
  C:1506H         LINE#         15
  C:1518H         LINE#         17
  C:1553H         LINE#         29
  C:1553H         LINE#         30
  C:1555H         LINE#         31
  C:1555H         LINE#         32
  C:1558H         LINE#         34
  C:1570H         LINE#         35
  C:1573H         LINE#         36
  C:1590H         LINE#         42
  C:1590H         LINE#         43
  C:1595H         LINE#         44
  C:159AH         LINE#         45
  C:159AH         LINE#         46
  C:159DH         LINE#         48
  C:15C0H         LINE#         49
  C:15C3H         LINE#         50
  C:15CBH         LINE#         53
  C:15CBH         LINE#         55
  C:15CDH         LINE#         56
  C:15CDH         LINE#         58
  C:15D5H         LINE#         59
  C:15D5H         LINE#         60
  C:15D8H         LINE#         62
  C:160EH         LINE#         63
  C:1611H         LINE#         77
  C:161CH         LINE#         78
  C:161CH         LINE#         79
  C:1621H         LINE#         80
  C:1626H         LINE#         87
  C:162EH         LINE#         88
  C:1638H         LINE#         89
  C:1640H         LINE#         90
  C:1648H         LINE#         91
  C:1650H         LINE#         92
  C:1658H         LINE#         93
  C:165DH         LINE#         103
  C:169EH         LINE#         104
  C:169EH         LINE#         107
  C:16A7H         LINE#         108
  C:16ADH         LINE#         110
  C:16B4H         LINE#         112
  -------         ENDPROC       _SEND_DATA
  -------         ENDMOD        SEND_DATA

  -------         MODULE        PIN_LEVEL_SCAN
  C:0000H         SYMBOL        _ICE_DUMMY_
  B:0080H.6       PUBLIC        P06
  B:0080H.7       PUBLIC        P07
  B:0090H.0       PUBLIC        P10
  B:0090H.3       PUBLIC        P13
BL51 BANKED LINKER/LOCATER V6.22.4.0                                                  05/26/2025  16:52:39  PAGE 40


  B:0090H.4       PUBLIC        P14
  B:00A0H.0       PUBLIC        P20
  B:00A0H.1       PUBLIC        P21
  B:00A0H.2       PUBLIC        P22
  B:00A0H.5       PUBLIC        P25
  B:00A0H.7       PUBLIC        P27
  B:00B0H.0       PUBLIC        P30
  X:6544H         PUBLIC        pin_level_scan_time_cnt
  C:3992H         PUBLIC        pin_level_scan_config
  C:2A79H         PUBLIC        pin_level_scan
  -------         PROC          PIN_LEVEL_SCAN_CONFIG
  C:3992H         LINE#         5
  C:3992H         LINE#         6
  C:3992H         LINE#         7
  C:3995H         LINE#         8
  C:3998H         LINE#         10
  C:399BH         LINE#         12
  C:399EH         LINE#         13
  C:39A1H         LINE#         14
  C:39A4H         LINE#         15
  C:39A7H         LINE#         16
  C:39AAH         LINE#         17
  C:39ADH         LINE#         18
  C:39B0H         LINE#         21
  C:39B6H         LINE#         22
  C:39BCH         LINE#         27
  -------         ENDPROC       PIN_LEVEL_SCAN_CONFIG
  -------         PROC          PIN_LEVEL_SCAN
  C:2A79H         LINE#         30
  C:2A79H         LINE#         31
  C:2A79H         LINE#         33
  C:2A8BH         LINE#         34
  C:2A8BH         LINE#         35
  C:2A8FH         LINE#         52
  C:2A95H         LINE#         53
  C:2A95H         LINE#         55
  C:2A96H         LINE#         56
  C:2A98H         LINE#         58
  C:2A98H         LINE#         60
  C:2A9BH         LINE#         61
  C:2A9BH         LINE#         62
  C:2A9DH         LINE#         64
  C:2AA0H         LINE#         65
  C:2AA0H         LINE#         67
  C:2AA5H         LINE#         68
  C:2AA7H         LINE#         70
  C:2AA7H         LINE#         72
  C:2AADH         LINE#         73
  C:2AADH         LINE#         74
  C:2AAFH         LINE#         76
  C:2AB2H         LINE#         77
  C:2AB2H         LINE#         79
  C:2AB7H         LINE#         80
  C:2AB9H         LINE#         82
  C:2AB9H         LINE#         84
  C:2ABFH         LINE#         85
  C:2ABFH         LINE#         86
BL51 BANKED LINKER/LOCATER V6.22.4.0                                                  05/26/2025  16:52:39  PAGE 41


  C:2AC1H         LINE#         90
  C:2AC4H         LINE#         91
  C:2AC4H         LINE#         93
  C:2AC9H         LINE#         94
  C:2ACBH         LINE#         95
  C:2ACEH         LINE#         96
  C:2ACEH         LINE#         98
  C:2AD4H         LINE#         99
  C:2AD6H         LINE#         100
  C:2AD9H         LINE#         101
  C:2AD9H         LINE#         103
  C:2ADFH         LINE#         104
  C:2AE1H         LINE#         105
  C:2AE4H         LINE#         106
  C:2AE4H         LINE#         108
  C:2AEAH         LINE#         109
  C:2AECH         LINE#         110
  C:2AEFH         LINE#         111
  C:2AEFH         LINE#         113
  C:2AF5H         LINE#         114
  C:2AF7H         LINE#         115
  C:2AFAH         LINE#         116
  C:2AFAH         LINE#         118
  C:2B00H         LINE#         119
  C:2B02H         LINE#         120
  C:2B05H         LINE#         121
  C:2B05H         LINE#         123
  C:2B0BH         LINE#         124
  C:2B0BH         LINE#         127
  C:2B0DH         LINE#         129
  C:2B10H         LINE#         130
  C:2B10H         LINE#         132
  C:2B15H         LINE#         135
  C:2B15H         LINE#         136
  C:2B17H         LINE#         138
  C:2B17H         LINE#         140
  C:2B1CH         LINE#         143
  C:2B1EH         LINE#         144
  C:2B1EH         LINE#         148
  C:2B20H         LINE#         149
  C:2B20H         LINE#         161
  -------         ENDPROC       PIN_LEVEL_SCAN
  -------         ENDMOD        PIN_LEVEL_SCAN

  -------         MODULE        SPEED_SCAN
  C:0000H         SYMBOL        _ICE_DUMMY_
  B:0024H.2       PUBLIC        flag_is_update_speed_pulse_cnt
  X:64B0H         PUBLIC        speed_scan_time_cnt
  X:64B2H         PUBLIC        speed_actual_scan_time_cnt
  X:64B4H         PUBLIC        detect_speed_pulse_cnt
  C:3D2AH         PUBLIC        speed_scan_config
  C:2534H         PUBLIC        speed_scan
  C:3BFAH         SYMBOL        Com0007
  C:3BFAH         SYMBOL        L?0008
  C:3C07H         SYMBOL        L?0009
  C:3C0AH         SYMBOL        L?0010
  -------         PROC          COM0007
BL51 BANKED LINKER/LOCATER V6.22.4.0                                                  05/26/2025  16:52:39  PAGE 42


  -------         ENDPROC       COM0007
  -------         PROC          SPEED_SCAN_CONFIG
  C:3D2AH         LINE#         17
  C:3D2AH         LINE#         18
  C:3D2AH         LINE#         21
  C:3D30H         LINE#         22
  C:3D36H         LINE#         25
  -------         ENDPROC       SPEED_SCAN_CONFIG
  -------         PROC          SPEED_SCAN
  -------         DO            
  X:652EH         SYMBOL        cur_speed
  X:64ABH         SYMBOL        cur_speed_average_val
  X:64AFH         SYMBOL        speed_scan_cnt
  -------         ENDDO         
  C:2534H         LINE#         28
  C:2534H         LINE#         29
  C:2534H         LINE#         30
  C:253EH         LINE#         35
  C:2544H         LINE#         36
  C:2544H         LINE#         37
  C:2546H         LINE#         44
  C:255BH         LINE#         48
  C:2565H         LINE#         49
  C:2574H         LINE#         66
  C:259DH         LINE#         70
  C:25A6H         LINE#         71
  C:25A6H         LINE#         73
  C:25A9H         LINE#         74
  C:25B8H         LINE#         80
  C:25B8H         LINE#         82
  C:25B8H         LINE#         84
  C:25BDH         LINE#         85
  C:25D2H         LINE#         86
  C:25DEH         LINE#         87
  C:25E8H         LINE#         101
  C:25FBH         LINE#         102
  C:25FBH         LINE#         103
  C:2605H         LINE#         104
  C:2605H         LINE#         106
  C:2607H         LINE#         107
  C:2607H         LINE#         108
  C:2607H         LINE#         109
  -------         ENDPROC       SPEED_SCAN
  -------         ENDMOD        SPEED_SCAN

  -------         MODULE        ENGINE_SPEED_SCAN
  C:0000H         SYMBOL        _ICE_DUMMY_
  B:0024H.3       PUBLIC        flag_is_update_engine_pulse_cnt
  X:64C1H         PUBLIC        engine_scan_time_cnt
  X:64C3H         PUBLIC        engine_actual_scan_time_cnt
  X:64C5H         PUBLIC        detect_engine_pulse_cnt
  C:3D7AH         PUBLIC        engine_speed_scan_config
  C:29CDH         PUBLIC        engine_speed_scan
  -------         PROC          ENGINE_SPEED_SCAN_CONFIG
  C:3D7AH         LINE#         22
  C:3D7AH         LINE#         23
  C:3D7AH         LINE#         26
BL51 BANKED LINKER/LOCATER V6.22.4.0                                                  05/26/2025  16:52:39  PAGE 43


  C:3D80H         LINE#         29
  -------         ENDPROC       ENGINE_SPEED_SCAN_CONFIG
  -------         PROC          ENGINE_SPEED_SCAN
  -------         DO            
  X:6532H         SYMBOL        rpm
  X:64BCH         SYMBOL        engine_speed_scan_cnt
  X:64BDH         SYMBOL        cur_rpm_average
  -------         ENDDO         
  C:29CDH         LINE#         32
  C:29CDH         LINE#         33
  C:29CDH         LINE#         35
  C:29D7H         LINE#         39
  C:29DDH         LINE#         40
  C:29DDH         LINE#         42
  C:29DFH         LINE#         63
  C:2A0DH         LINE#         64
  C:2A16H         LINE#         65
  C:2A16H         LINE#         67
  C:2A19H         LINE#         68
  C:2A2CH         LINE#         74
  C:2A2CH         LINE#         76
  C:2A2CH         LINE#         78
  C:2A41H         LINE#         80
  C:2A46H         LINE#         83
  C:2A56H         LINE#         84
  C:2A56H         LINE#         85
  C:2A60H         LINE#         86
  C:2A60H         LINE#         103
  C:2A6CH         LINE#         104
  C:2A76H         LINE#         106
  C:2A78H         LINE#         107
  C:2A78H         LINE#         108
  C:2A78H         LINE#         109
  -------         ENDPROC       ENGINE_SPEED_SCAN
  -------         ENDMOD        ENGINE_SPEED_SCAN

  -------         MODULE        MILEAGE
  C:0000H         SYMBOL        _ICE_DUMMY_
  X:64A1H         PUBLIC        distance
  X:64A5H         PUBLIC        mileage_save_time_cnt
  X:64A9H         PUBLIC        mileage_update_time_cnt
  C:26D8H         PUBLIC        mileage_scan
  C:39BDH         SYMBOL        Com0009
  C:39BDH         SYMBOL        L?0010
  C:39C0H         SYMBOL        L?0011
  C:39C7H         SYMBOL        L?0012
  C:39D8H         SYMBOL        L?0013
  -------         PROC          COM0009
  -------         ENDPROC       COM0009
  -------         PROC          MILEAGE_SCAN
  -------         DO            
  X:6499H         SYMBOL        old_total_mileage
  X:649DH         SYMBOL        old_subtotal_mileage
  -------         ENDDO         
  C:26D8H         LINE#         10
  C:26D8H         LINE#         11
  C:26D8H         LINE#         18
BL51 BANKED LINKER/LOCATER V6.22.4.0                                                  05/26/2025  16:52:39  PAGE 44


  C:26E4H         LINE#         19
  C:26E4H         LINE#         20
  C:26EEH         LINE#         21
  C:26F1H         LINE#         30
  C:26F1H         LINE#         32
  C:26FDH         LINE#         33
  C:26FDH         LINE#         43
  C:270DH         LINE#         44
  C:270DH         LINE#         45
  C:2719H         LINE#         46
  C:2719H         LINE#         55
  C:2729H         LINE#         56
  C:2729H         LINE#         57
  C:2735H         LINE#         58
  C:2735H         LINE#         60
  C:2752H         LINE#         61
  C:2752H         LINE#         65
  C:2760H         LINE#         70
  C:2760H         LINE#         71
  C:276CH         LINE#         76
  C:276EH         LINE#         77
  C:276EH         LINE#         81
  C:277CH         LINE#         86
  C:277CH         LINE#         87
  C:2788H         LINE#         92
  C:278AH         LINE#         93
  C:278AH         LINE#         95
  C:2799H         LINE#         96
  C:2799H         LINE#         100
  C:279DH         LINE#         101
  C:279FH         LINE#         102
  C:27A1H         LINE#         103
  C:27A1H         LINE#         104
  -------         ENDPROC       MILEAGE_SCAN
  -------         ENDMOD        MILEAGE

  -------         MODULE        INSTRUCTION
  C:0000H         SYMBOL        _ICE_DUMMY_
  B:0020H.0       PUBLIC        flag_get_all_status
  B:0020H.1       PUBLIC        flag_get_gear
  B:0020H.2       PUBLIC        flag_get_battery
  B:0020H.3       PUBLIC        flag_get_brake
  B:0020H.4       PUBLIC        flag_get_left_turn
  B:0020H.5       PUBLIC        flag_get_right_turn
  B:0020H.6       PUBLIC        flag_get_high_beam
  B:0020H.7       PUBLIC        flag_get_engine_speed
  B:0021H.0       PUBLIC        flag_get_speed
  B:0021H.1       PUBLIC        flag_get_fuel
  B:0021H.2       PUBLIC        flag_update_malfunction_status
  B:0021H.3       PUBLIC        flag_update_abs_status
  B:0021H.4       PUBLIC        flag_get_total_mileage
  B:0021H.5       PUBLIC        flag_get_sub_total_mileage
  B:0021H.6       PUBLIC        flag_alter_time
  B:0021H.7       PUBLIC        flag_get_voltage_of_battery
  B:0022H.0       PUBLIC        flag_set_temp_of_water_warning
  B:0022H.1       PUBLIC        flag_clear_total_mileage
  B:0022H.2       PUBLIC        flag_clear_sub_total_mileage
BL51 BANKED LINKER/LOCATER V6.22.4.0                                                  05/26/2025  16:52:39  PAGE 45


  X:6506H         PUBLIC        synchronous_request_status
  X:6507H         PUBLIC        synchronous_request_time_cnt
  X:6509H         PUBLIC        update_time_status
  X:650AH         PUBLIC        update_date_status
  X:650BH         PUBLIC        update_time_cooling_cnt
  X:650DH         PUBLIC        update_date_cooling_cnt
  C:204CH         PUBLIC        instruction_scan
  C:10DEH         PUBLIC        instruction_handle
  C:3707H         SYMBOL        Com0020
  C:3707H         SYMBOL        L?0033
  C:370AH         SYMBOL        L?0034
  C:3710H         SYMBOL        L?0035
  C:3716H         SYMBOL        L?0036
  C:371EH         SYMBOL        L?0037
  C:3720H         SYMBOL        L?0038
  C:3726H         SYMBOL        L?0039
  C:3726H         SYMBOL        L?0040
  C:372FH         SYMBOL        L?0041
  C:373BH         SYMBOL        L?0042
  -------         PROC          COM0020
  -------         ENDPROC       COM0020
  -------         PROC          INSTRUCTION_SCAN
  -------         DO            
  X:654CH         SYMBOL        i
  -------         ENDDO         
  C:204CH         LINE#         49
  C:204CH         LINE#         50
  C:204CH         LINE#         51
  C:2051H         LINE#         52
  C:205FH         LINE#         53
  C:205FH         LINE#         54
  C:206FH         LINE#         55
  C:206FH         LINE#         58
  C:206FH         LINE#         59
  C:2094H         LINE#         60
  C:2094H         LINE#         61
  C:2094H         LINE#         62
  C:2096H         LINE#         63
  C:2099H         LINE#         163
  C:2099H         LINE#         164
  C:209BH         LINE#         167
  C:20C5H         LINE#         168
  C:20D6H         LINE#         169
  C:20E9H         LINE#         171
  C:20FAH         LINE#         172
  C:210DH         LINE#         173
  C:211EH         LINE#         195
  C:2120H         LINE#         197
  C:2120H         LINE#         198
  C:2122H         LINE#         199
  C:2124H         LINE#         201
  C:2124H         LINE#         202
  C:2126H         LINE#         203
  C:2126H         LINE#         204
  C:2126H         LINE#         206
  C:212FH         LINE#         207
  C:212FH         LINE#         208
BL51 BANKED LINKER/LOCATER V6.22.4.0                                                  05/26/2025  16:52:39  PAGE 46


  C:2132H         LINE#         209
  C:2132H         LINE#         211
  C:2142H         LINE#         212
  C:214EH         LINE#         213
  C:215AH         LINE#         214
  C:2176H         LINE#         215
  C:2176H         LINE#         216
  C:2176H         LINE#         217
  C:217FH         LINE#         218
  -------         ENDPROC       INSTRUCTION_SCAN
  -------         PROC          INSTRUCTION_HANDLE
  -------         DO            
  X:6536H         SYMBOL        temp_val
  -------         ENDDO         
  C:10DEH         LINE#         220
  C:10DEH         LINE#         221
  C:10DEH         LINE#         222
  C:10E4H         LINE#         223
  C:10E4H         LINE#         225
  C:10EEH         LINE#         226
  C:10F0H         LINE#         232
  C:10F9H         LINE#         233
  C:10F9H         LINE#         235
  C:10FBH         LINE#         237
  C:1103H         LINE#         238
  C:110EH         LINE#         239
  C:1119H         LINE#         240
  C:1124H         LINE#         241
  C:112FH         LINE#         242
  C:113AH         LINE#         243
  C:1148H         LINE#         244
  C:1156H         LINE#         245
  C:1161H         LINE#         248
  C:116CH         LINE#         249
  C:117EH         LINE#         261
  C:1181H         LINE#         272
  C:1190H         LINE#         274
  C:119BH         LINE#         276
  C:11A6H         LINE#         277
  C:11A6H         LINE#         278
  C:11A6H         LINE#         280
  C:11A9H         LINE#         281
  C:11A9H         LINE#         282
  C:11ABH         LINE#         288
  C:11B3H         LINE#         290
  C:11B3H         LINE#         292
  C:11B6H         LINE#         293
  C:11B6H         LINE#         295
  C:11B8H         LINE#         300
  C:11C3H         LINE#         301
  C:11C3H         LINE#         317
  C:11C6H         LINE#         318
  C:11C6H         LINE#         319
  C:11C8H         LINE#         325
  C:11D3H         LINE#         326
  C:11D3H         LINE#         328
  C:11D6H         LINE#         329
BL51 BANKED LINKER/LOCATER V6.22.4.0                                                  05/26/2025  16:52:39  PAGE 47


  C:11D6H         LINE#         331
  C:11D8H         LINE#         335
  C:11E3H         LINE#         336
  C:11E3H         LINE#         338
  C:11E6H         LINE#         339
  C:11E6H         LINE#         341
  C:11E8H         LINE#         345
  C:11F3H         LINE#         346
  C:11F3H         LINE#         348
  C:11F6H         LINE#         349
  C:11F6H         LINE#         351
  C:11F8H         LINE#         356
  C:1206H         LINE#         357
  C:1206H         LINE#         359
  C:1209H         LINE#         360
  C:1209H         LINE#         362
  C:120BH         LINE#         369
  C:1219H         LINE#         379
  C:1219H         LINE#         381
  C:121CH         LINE#         382
  C:121CH         LINE#         384
  C:121EH         LINE#         390
  C:1229H         LINE#         391
  C:1229H         LINE#         404
  C:122CH         LINE#         405
  C:122CH         LINE#         406
  C:122EH         LINE#         407
  C:1239H         LINE#         410
  C:1244H         LINE#         411
  C:1244H         LINE#         413
  C:1247H         LINE#         414
  C:1247H         LINE#         415
  C:1249H         LINE#         424
  C:1254H         LINE#         439
  C:1254H         LINE#         441
  C:1257H         LINE#         442
  C:1257H         LINE#         444
  C:1259H         LINE#         452
  C:126DH         LINE#         466
  C:126DH         LINE#         491
  C:1270H         LINE#         492
  C:1270H         LINE#         494
  C:1272H         LINE#         501
  C:1278H         LINE#         502
  C:1278H         LINE#         506
  C:128DH         LINE#         507
  C:1293H         LINE#         508
  C:1293H         LINE#         509
  C:1293H         LINE#         511
  C:1296H         LINE#         512
  C:1296H         LINE#         514
  C:1298H         LINE#         519
  C:12A3H         LINE#         520
  C:12A3H         LINE#         522
  C:12A6H         LINE#         523
  C:12A6H         LINE#         525
  C:12A8H         LINE#         530
BL51 BANKED LINKER/LOCATER V6.22.4.0                                                  05/26/2025  16:52:39  PAGE 48


  C:12B3H         LINE#         531
  C:12B3H         LINE#         533
  C:12B6H         LINE#         534
  C:12B6H         LINE#         536
  C:12B8H         LINE#         537
  C:12C2H         LINE#         538
  C:12CCH         LINE#         539
  C:12CFH         LINE#         543
  C:12CFH         LINE#         545
  C:12D2H         LINE#         546
  C:12D2H         LINE#         548
  C:12D4H         LINE#         549
  C:12DEH         LINE#         550
  C:12E8H         LINE#         551
  C:12EBH         LINE#         555
  C:12EBH         LINE#         556
  -------         ENDPROC       INSTRUCTION_HANDLE
  -------         ENDMOD        INSTRUCTION

  -------         MODULE        AD_KEY
  C:0000H         SYMBOL        _ICE_DUMMY_
  X:63ACH         PUBLIC        ad_key_para
  C:3A33H         PUBLIC        ad_key_handle
  X:63BFH         SYMBOL        ad_key_scan_table
  X:63D3H         SYMBOL        ad_key_event_table
  C:3907H         PUBLIC        ad_key_get_key_id
  C:34F2H         SYMBOL        ___conver_cur_ad_to_ad_key
  C:3A10H         SYMBOL        ___ad_key_get_event
  C:004EH         SYMBOL        Com0029
  C:004EH         SYMBOL        L?0042
  -------         PROC          COM0029
  -------         ENDPROC       COM0029
  -------         PROC          ___CONVER_CUR_AD_TO_AD_KEY
  D:0006H         SYMBOL        cur_ad_key
  -------         DO            
  D:0005H         SYMBOL        i
  X:63F3H         SYMBOL        ad_key_id
  -------         ENDDO         
  C:34F2H         LINE#         139
  C:34F2H         LINE#         140
  C:34F2H         LINE#         141
  C:34F4H         LINE#         143
  C:34FCH         LINE#         146
  C:34FCH         LINE#         147
  C:34FCH         LINE#         156
  C:3514H         LINE#         157
  C:3514H         LINE#         158
  C:352EH         LINE#         159
  C:3530H         LINE#         160
  C:3530H         LINE#         161
  C:3535H         LINE#         163
  C:353DH         LINE#         164
  -------         ENDPROC       ___CONVER_CUR_AD_TO_AD_KEY
  -------         PROC          ___AD_KEY_GET_EVENT
  D:0007H         SYMBOL        key_val
  D:0005H         SYMBOL        key_event
  -------         DO            
BL51 BANKED LINKER/LOCATER V6.22.4.0                                                  05/26/2025  16:52:39  PAGE 49


  D:0006H         SYMBOL        ret_key_event
  D:0004H         SYMBOL        i
  -------         ENDDO         
  C:3A10H         LINE#         174
  C:3A10H         LINE#         175
  C:3A10H         LINE#         176
  C:3A12H         LINE#         177
  C:3A13H         LINE#         178
  C:3A13H         LINE#         179
  C:3A13H         LINE#         180
  C:3A1AH         LINE#         181
  C:3A1AH         LINE#         183
  C:3A29H         LINE#         194
  C:3A2BH         LINE#         195
  C:3A2BH         LINE#         196
  C:3A30H         LINE#         198
  C:3A32H         LINE#         199
  -------         ENDPROC       ___AD_KEY_GET_EVENT
  -------         PROC          AD_KEY_GET_KEY_ID
  -------         DO            
  X:63F1H         SYMBOL        ad_key_id
  -------         ENDDO         
  C:3907H         LINE#         201
  C:3907H         LINE#         202
  C:3907H         LINE#         203
  C:390EH         LINE#         204
  C:3913H         LINE#         205
  C:391EH         LINE#         208
  C:3931H         LINE#         216
  C:3938H         LINE#         217
  -------         ENDPROC       AD_KEY_GET_KEY_ID
  -------         PROC          AD_KEY_HANDLE
  -------         DO            
  D:0007H         SYMBOL        ad_key_event
  -------         ENDDO         
  C:3A33H         LINE#         219
  C:3A33H         LINE#         220
  C:3A33H         LINE#         221
  C:3A33H         LINE#         223
  C:3A39H         LINE#         224
  C:3A39H         LINE#         226
  C:3A39H         LINE#         228
  C:3A41H         LINE#         229
  C:3A46H         LINE#         230
  C:3A48H         LINE#         232
  C:3A4CH         LINE#         233
  C:3A4CH         LINE#         236
  C:3A4CH         LINE#         237
  C:3A55H         LINE#         238
  C:3A55H         LINE#         240
  C:3A55H         LINE#         242
  C:3A55H         LINE#         244
  C:3A55H         LINE#         246
  C:3A55H         LINE#         248
  C:3A55H         LINE#         250
  C:3A55H         LINE#         252
  C:3A55H         LINE#         254
BL51 BANKED LINKER/LOCATER V6.22.4.0                                                  05/26/2025  16:52:39  PAGE 50


  C:3A55H         LINE#         255
  C:3A55H         LINE#         257
  C:3A55H         LINE#         259
  C:3A55H         LINE#         261
  C:3A55H         LINE#         263
  C:3A55H         LINE#         265
  C:3A55H         LINE#         267
  C:3A55H         LINE#         269
  C:3A55H         LINE#         271
  C:3A55H         LINE#         273
  C:3A55H         LINE#         274
  C:3A55H         LINE#         276
  C:3A55H         LINE#         278
  C:3A55H         LINE#         280
  C:3A55H         LINE#         282
  C:3A55H         LINE#         284
  C:3A55H         LINE#         286
  C:3A55H         LINE#         288
  C:3A55H         LINE#         290
  C:3A55H         LINE#         292
  C:3A55H         LINE#         293
  C:3A55H         LINE#         295
  C:3A55H         LINE#         297
  C:3A55H         LINE#         299
  C:3A55H         LINE#         301
  C:3A55H         LINE#         303
  C:3A55H         LINE#         305
  C:3A55H         LINE#         307
  C:3A55H         LINE#         309
  C:3A55H         LINE#         311
  C:3A55H         LINE#         312
  C:3A55H         LINE#         314
  C:3A55H         LINE#         316
  C:3A55H         LINE#         318
  C:3A55H         LINE#         320
  C:3A55H         LINE#         322
  C:3A55H         LINE#         324
  C:3A55H         LINE#         326
  C:3A55H         LINE#         328
  C:3A55H         LINE#         330
  C:3A55H         LINE#         332
  C:3A55H         LINE#         333
  C:3A55H         LINE#         336
  C:3A55H         LINE#         337
  -------         ENDPROC       AD_KEY_HANDLE
  -------         ENDMOD        AD_KEY

  -------         MODULE        FUEL_CAPACITY
  C:0000H         SYMBOL        _ICE_DUMMY_
  X:64CDH         PUBLIC        fuel_capacity_scan_cnt
  C:0C31H         PUBLIC        fuel_capacity_scan
  X:64D1H         PUBLIC        fuel_adc_val
  X:64D5H         PUBLIC        fuel_adc_scan_cnt
  X:64D9H         PUBLIC        fuel_percent
  C:39E8H         SYMBOL        Com002D
  C:39E8H         SYMBOL        L?0046
  C:39EBH         SYMBOL        L?0047
BL51 BANKED LINKER/LOCATER V6.22.4.0                                                  05/26/2025  16:52:39  PAGE 51


  C:39EEH         SYMBOL        L?0048
  C:39F7H         SYMBOL        L?0049
  C:39FAH         SYMBOL        L?0050
  C:3A06H         SYMBOL        L?0051
  -------         PROC          COM002D
  -------         ENDPROC       COM002D
  -------         PROC          FUEL_CAPACITY_SCAN
  C:0C31H         LINE#         11
  C:0C31H         LINE#         12
  C:0C31H         LINE#         13
  C:0C36H         LINE#         14
  C:0C41H         LINE#         17
  C:0C55H         LINE#         18
  C:0C6EH         LINE#         21
  C:0C7EH         LINE#         22
  C:0C7EH         LINE#         25
  C:0C88H         LINE#         26
  C:0C97H         LINE#         27
  C:0CA1H         LINE#         38
  C:0CABH         LINE#         39
  C:0CABH         LINE#         40
  C:0CB1H         LINE#         41
  C:0CB4H         LINE#         42
  C:0CBBH         LINE#         43
  C:0CBBH         LINE#         44
  C:0CC1H         LINE#         45
  C:0CC4H         LINE#         46
  C:0CCEH         LINE#         47
  C:0CCEH         LINE#         48
  C:0CD4H         LINE#         49
  C:0CD7H         LINE#         50
  C:0CE1H         LINE#         51
  C:0CE1H         LINE#         52
  C:0CE7H         LINE#         53
  C:0CEAH         LINE#         54
  C:0CF4H         LINE#         55
  C:0CF4H         LINE#         56
  C:0CFAH         LINE#         57
  C:0CFDH         LINE#         58
  C:0D07H         LINE#         59
  C:0D07H         LINE#         60
  C:0D0DH         LINE#         61
  C:0D0FH         LINE#         62
  C:0D19H         LINE#         63
  C:0D19H         LINE#         64
  C:0D1FH         LINE#         65
  C:0D21H         LINE#         66
  C:0D2BH         LINE#         67
  C:0D2BH         LINE#         68
  C:0D31H         LINE#         69
  C:0D33H         LINE#         70
  C:0D3DH         LINE#         71
  C:0D3DH         LINE#         72
  C:0D43H         LINE#         73
  C:0D45H         LINE#         74
  C:0D4CH         LINE#         75
  C:0D4CH         LINE#         76
BL51 BANKED LINKER/LOCATER V6.22.4.0                                                  05/26/2025  16:52:39  PAGE 52


  C:0D52H         LINE#         77
  C:0D54H         LINE#         79
  C:0D54H         LINE#         80
  C:0D59H         LINE#         81
  C:0D59H         LINE#         90
  C:0D60H         LINE#         91
  C:0D60H         LINE#         93
  C:0D65H         LINE#         94
  C:0D68H         LINE#         95
  C:0D79H         LINE#         97
  C:0D79H         LINE#         99
  C:0D7FH         LINE#         100
  C:0D82H         LINE#         101
  C:0D96H         LINE#         103
  C:0D96H         LINE#         105
  C:0D9CH         LINE#         106
  C:0D9FH         LINE#         107
  C:0DB3H         LINE#         109
  C:0DB3H         LINE#         111
  C:0DB9H         LINE#         112
  C:0DBCH         LINE#         113
  C:0DD0H         LINE#         115
  C:0DD0H         LINE#         117
  C:0DD6H         LINE#         118
  C:0DD9H         LINE#         119
  C:0DEDH         LINE#         121
  C:0DEDH         LINE#         123
  C:0DF3H         LINE#         124
  C:0DF6H         LINE#         126
  C:0E0AH         LINE#         128
  C:0E0AH         LINE#         130
  C:0E10H         LINE#         131
  C:0E13H         LINE#         132
  C:0E27H         LINE#         134
  C:0E27H         LINE#         136
  C:0E2DH         LINE#         137
  C:0E2FH         LINE#         138
  C:0E43H         LINE#         140
  C:0E43H         LINE#         142
  C:0E49H         LINE#         143
  C:0E4BH         LINE#         144
  C:0E5FH         LINE#         146
  C:0E5FH         LINE#         148
  C:0E65H         LINE#         149
  C:0E67H         LINE#         150
  C:0E71H         LINE#         151
  C:0E71H         LINE#         153
  C:0E77H         LINE#         154
  C:0E77H         LINE#         156
  C:0E77H         LINE#         159
  C:0E77H         LINE#         169
  C:0E7FH         LINE#         170
  C:0E89H         LINE#         171
  C:0E8BH         LINE#         172
  C:0E8BH         LINE#         173
  -------         ENDPROC       FUEL_CAPACITY_SCAN
  -------         ENDMOD        FUEL_CAPACITY
BL51 BANKED LINKER/LOCATER V6.22.4.0                                                  05/26/2025  16:52:39  PAGE 53



  -------         MODULE        TEMP_OF_WATER
  C:0000H         SYMBOL        _ICE_DUMMY_
  C:2608H         PUBLIC        temp_of_water_scan
  C:3B12H         SYMBOL        Com0009
  C:3B12H         SYMBOL        L?0010
  C:3B22H         SYMBOL        L?0011
  C:3B29H         SYMBOL        L?0012
  -------         PROC          COM0009
  -------         ENDPROC       COM0009
  -------         PROC          TEMP_OF_WATER_SCAN
  -------         DO            
  X:64DAH         SYMBOL        over_heat_accumulate_cnt
  X:64DEH         SYMBOL        cooling_down_accumulate_cnt
  X:64E2H         SYMBOL        temp_of_water_update_time_cnt
  -------         ENDDO         
  C:2608H         LINE#         8
  C:2608H         LINE#         9
  C:2608H         LINE#         14
  C:260DH         LINE#         15
  C:261AH         LINE#         16
  C:2633H         LINE#         19
  C:263FH         LINE#         20
  C:263FH         LINE#         22
  C:2648H         LINE#         24
  C:2652H         LINE#         25
  C:2654H         LINE#         27
  C:2654H         LINE#         28
  C:265BH         LINE#         29
  C:265BH         LINE#         31
  C:2663H         LINE#         32
  C:2663H         LINE#         35
  C:266DH         LINE#         36
  C:2672H         LINE#         37
  C:2674H         LINE#         38
  C:2674H         LINE#         41
  C:2686H         LINE#         42
  C:2686H         LINE#         43
  C:268FH         LINE#         45
  C:2699H         LINE#         46
  C:269BH         LINE#         48
  C:269BH         LINE#         50
  C:26A2H         LINE#         51
  C:26A2H         LINE#         53
  C:26AAH         LINE#         54
  C:26AAH         LINE#         57
  C:26B4H         LINE#         58
  C:26BAH         LINE#         59
  C:26BCH         LINE#         60
  C:26BCH         LINE#         62
  C:26CBH         LINE#         63
  C:26CBH         LINE#         65
  C:26D5H         LINE#         66
  C:26D7H         LINE#         69
  C:26D7H         LINE#         70
  -------         ENDPROC       TEMP_OF_WATER_SCAN
  -------         ENDMOD        TEMP_OF_WATER
BL51 BANKED LINKER/LOCATER V6.22.4.0                                                  05/26/2025  16:52:39  PAGE 54



  -------         MODULE        BATTERY
  C:0000H         SYMBOL        _ICE_DUMMY_
  X:64EEH         PUBLIC        battery_scan_time_cnt
  C:27A2H         PUBLIC        battery_scan
  C:3C62H         PUBLIC        _conver_adc_val_to_voltage
  C:3BCDH         PUBLIC        _conver_voltage_of_battery_to_percentage
  -------         PROC          _CONVER_ADC_VAL_TO_VOLTAGE
  D:0006H         SYMBOL        arg_adc_val
  C:3C62H         LINE#         9
  C:3C62H         LINE#         10
  C:3C62H         LINE#         16
  -------         ENDPROC       _CONVER_ADC_VAL_TO_VOLTAGE
  -------         PROC          _CONVER_VOLTAGE_OF_BATTERY_TO_PERCENTAGE
  D:0007H         SYMBOL        voltage
  -------         DO            
  D:0007H         SYMBOL        tmp
  -------         ENDDO         
  C:3BCDH         LINE#         21
  C:3BCDH         LINE#         22
  C:3BCDH         LINE#         24
  C:3BDBH         LINE#         25
  C:3BE1H         LINE#         26
  C:3BE1H         LINE#         28
  C:3BE3H         LINE#         29
  C:3BE3H         LINE#         31
  C:3BE3H         LINE#         32
  -------         ENDPROC       _CONVER_VOLTAGE_OF_BATTERY_TO_PERCENTAGE
  -------         PROC          BATTERY_SCAN
  -------         DO            
  X:6546H         SYMBOL        voltage_of_battery
  X:6547H         SYMBOL        cur_percentage_of_battery
  X:64E6H         SYMBOL        battery_scan_cnt
  X:64EAH         SYMBOL        battery_val
  -------         ENDDO         
  C:27A2H         LINE#         34
  C:27A2H         LINE#         35
  C:27A2H         LINE#         36
  C:27A7H         LINE#         37
  C:27A9H         LINE#         42
  C:27AEH         LINE#         43
  C:27D3H         LINE#         44
  C:27ECH         LINE#         45
  C:27FFH         LINE#         46
  C:27FFH         LINE#         47
  C:2814H         LINE#         48
  C:2822H         LINE#         49
  C:282AH         LINE#         50
  C:2834H         LINE#         51
  C:283EH         LINE#         52
  C:2848H         LINE#         54
  C:2850H         LINE#         55
  C:285DH         LINE#         60
  C:285FH         LINE#         61
  C:2861H         LINE#         62
  C:2861H         LINE#         63
  -------         ENDPROC       BATTERY_SCAN
BL51 BANKED LINKER/LOCATER V6.22.4.0                                                  05/26/2025  16:52:39  PAGE 55


  -------         ENDMOD        BATTERY

  -------         MODULE        TOUCH_KEY
  C:0000H         SYMBOL        _ICE_DUMMY_
  D:00D9H         PUBLIC        WDT_KEY
  X:6444H         PUBLIC        touch_key_para
  C:2E03H         PUBLIC        touch_key_handle
  X:6457H         SYMBOL        touch_key_event_table
  C:3A77H         SYMBOL        touch_key_get_key_id
  C:386CH         SYMBOL        ___touch_key_get_event
  C:3AB7H         SYMBOL        Com0022
  C:3AB7H         SYMBOL        L?0035
  C:3AC7H         SYMBOL        L?0036
  -------         PROC          COM0022
  -------         ENDPROC       COM0022
  -------         PROC          TOUCH_KEY_GET_KEY_ID
  C:3A77H         LINE#         79
  C:3A77H         LINE#         80
  C:3A77H         LINE#         81
  C:3A7AH         LINE#         83
  C:3A7DH         LINE#         84
  C:3A80H         LINE#         89
  C:3A87H         LINE#         90
  C:3A87H         LINE#         91
  C:3A8AH         LINE#         92
  C:3A8AH         LINE#         93
  C:3A91H         LINE#         94
  C:3A91H         LINE#         95
  C:3A94H         LINE#         96
  C:3A94H         LINE#         98
  C:3A94H         LINE#         100
  C:3A96H         LINE#         101
  C:3A96H         LINE#         104
  -------         ENDPROC       TOUCH_KEY_GET_KEY_ID
  -------         PROC          ___TOUCH_KEY_GET_EVENT
  D:0007H         SYMBOL        key_val
  D:0005H         SYMBOL        key_event
  -------         DO            
  X:6548H         SYMBOL        ret_key_event
  D:0006H         SYMBOL        i
  -------         ENDDO         
  C:386CH         LINE#         113
  C:386CH         LINE#         114
  C:386CH         LINE#         115
  C:3873H         LINE#         116
  C:3874H         LINE#         117
  C:3874H         LINE#         118
  C:3874H         LINE#         120
  C:387BH         LINE#         121
  C:387BH         LINE#         122
  C:3892H         LINE#         123
  C:3894H         LINE#         124
  C:3894H         LINE#         125
  C:3899H         LINE#         127
  C:38A0H         LINE#         128
  -------         ENDPROC       ___TOUCH_KEY_GET_EVENT
  -------         PROC          TOUCH_KEY_HANDLE
BL51 BANKED LINKER/LOCATER V6.22.4.0                                                  05/26/2025  16:52:39  PAGE 56


  -------         DO            
  D:0007H         SYMBOL        touch_key_event
  -------         ENDDO         
  C:2E03H         LINE#         130
  C:2E03H         LINE#         131
  C:2E03H         LINE#         132
  C:2E03H         LINE#         134
  C:2E0CH         LINE#         135
  C:2E0CH         LINE#         137
  C:2E0CH         LINE#         139
  C:2E14H         LINE#         140
  C:2E19H         LINE#         141
  C:2E1BH         LINE#         143
  C:2E41H         LINE#         144
  C:2E41H         LINE#         145
  C:2E41H         LINE#         146
  C:2E47H         LINE#         147
  C:2E49H         LINE#         149
  C:2E49H         LINE#         150
  C:2E4FH         LINE#         151
  C:2E51H         LINE#         153
  C:2E51H         LINE#         154
  C:2E57H         LINE#         155
  C:2E59H         LINE#         157
  C:2E59H         LINE#         158
  C:2E5FH         LINE#         159
  C:2E61H         LINE#         161
  C:2E61H         LINE#         162
  C:2E67H         LINE#         163
  C:2E69H         LINE#         164
  C:2E69H         LINE#         165
  C:2E6FH         LINE#         166
  C:2E71H         LINE#         168
  C:2E71H         LINE#         169
  C:2E77H         LINE#         170
  C:2E79H         LINE#         172
  C:2E79H         LINE#         173
  C:2E7FH         LINE#         174
  C:2E81H         LINE#         176
  C:2E81H         LINE#         177
  C:2E87H         LINE#         178
  C:2E89H         LINE#         180
  C:2E89H         LINE#         181
  C:2E92H         LINE#         182
  C:2E92H         LINE#         184
  C:2E92H         LINE#         185
  C:2E92H         LINE#         186
  C:2E92H         LINE#         187
  -------         ENDPROC       TOUCH_KEY_HANDLE
  -------         ENDMOD        TOUCH_KEY

  -------         MODULE        TK_LIB
  C:0000H         SYMBOL        _ICE_DUMMY_
  D:003CH         PUBLIC        __tk_ch_en
  C:08F2H         SYMBOL        __tk_data_process
  C:3782H         SYMBOL        __tk_mode_config
  D:0014H         PUBLIC        UNION_ADDR
BL51 BANKED LINKER/LOCATER V6.22.4.0                                                  05/26/2025  16:52:39  PAGE 57


  D:001CH         PUBLIC        __tk_flag_static
  D:0066H         PUBLIC        __tk_lib_union_i
  D:0060H         PUBLIC        __tk_normal_updata_cnt
  C:2F1FH         SYMBOL        ___tk_set_next_ch
  D:0034H         PUBLIC        __tk_flag
  D:0038H         PUBLIC        __tk_lib_tk_cnt
  C:3D81H         PUBLIC        __tk_ms_handler
  B:0023H.6       PUBLIC        __tk_adjust_done_peng
  C:3A97H         PUBLIC        __tk_scan
  X:6021H         PUBLIC        data_func_array
  D:0050H         PUBLIC        __ch_fth
  C:3026H         SYMBOL        __tk_baseline_update
  D:00F1H         PUBLIC        MDU_STA
  D:0030H         PUBLIC        __tk_key_debug_flag
  C:0E8CH         SYMBOL        ___tk_mode_carry_func
  D:0064H         PUBLIC        __tk_max_diff_index
  D:0061H         PUBLIC        __tk_next
  D:0052H         PUBLIC        __tk_max_diff
  D:0018H         PUBLIC        __tk_key_flag
  C:30A4H         SYMBOL        __tk_long_key_clear
  D:0008H         PUBLIC        MUL_RES_1
  D:000CH         PUBLIC        MUL_RES_2
  D:0065H         PUBLIC        __tk_lib_normal_cnt
  D:0010H         PUBLIC        MUL_RES_3
  C:333FH         SYMBOL        __tk_i_source_adjust
  D:0054H         PUBLIC        __tk_lib_data_temp
  D:008AH         PUBLIC        MDU_ADR0
  C:2B21H         PUBLIC        __tk_lib_init
  D:008BH         PUBLIC        MDU_ADR1
  X:63A9H         PUBLIC        __tk_p_data_process
  D:008CH         PUBLIC        MDU_ADR2
  B:0088H.0       PUBLIC        MDU_EN
  B:0023H.7       PUBLIC        __tk_long_key_flag
  D:0088H         PUBLIC        MDU_CTL0
  D:0089H         PUBLIC        MDU_CTL1
  D:0062H         PUBLIC        __tk_ms_flag
  C:2BBCH         SYMBOL        __tk_baseline_init
  C:18C5H         SYMBOL        __tk_button_decide
  C:3122H         PUBLIC        __tk_handler
  C:1A7EH         SYMBOL        ___tk_lib_i_adjust
  D:0063H         PUBLIC        __tk_cm_cnt
  -------         PROC          __TK_MODE_CONFIG
  C:3782H         LINE#         262
  C:3782H         LINE#         263
  C:3782H         LINE#         264
  C:3785H         LINE#         265
  C:3794H         LINE#         266
  C:379AH         LINE#         267
  C:379EH         LINE#         268
  C:37A2H         LINE#         269
  C:37A6H         LINE#         270
  C:37AAH         LINE#         272
  C:37BAH         LINE#         273
  -------         ENDPROC       __TK_MODE_CONFIG
  -------         PROC          ___TK_MODE_CARRY_FUNC
  X:63F1H         SYMBOL        ch_index
  C:0E8CH         LINE#         283
BL51 BANKED LINKER/LOCATER V6.22.4.0                                                  05/26/2025  16:52:39  PAGE 58


  C:0E91H         LINE#         284
  C:0E91H         LINE#         285
  C:0E9FH         LINE#         286
  C:0EABH         LINE#         288
  C:0EBEH         LINE#         289
  C:0ECEH         LINE#         291
  C:0ED9H         LINE#         292
  C:0F02H         LINE#         293
  C:0F33H         LINE#         294
  C:0F73H         LINE#         295
  C:0FA3H         LINE#         296
  C:0FC9H         LINE#         297
  C:0FE5H         LINE#         299
  C:1000H         LINE#         300
  C:1017H         LINE#         301
  C:1024H         LINE#         302
  C:1024H         LINE#         304
  C:103CH         LINE#         305
  C:104DH         LINE#         306
  C:1050H         LINE#         307
  C:1058H         LINE#         308
  C:106CH         LINE#         309
  C:107FH         LINE#         310
  C:1084H         LINE#         311
  C:1087H         LINE#         312
  C:108AH         LINE#         313
  C:108DH         LINE#         314
  C:108DH         LINE#         315
  C:108EH         LINE#         321
  C:1091H         LINE#         322
  C:10BEH         LINE#         323
  C:10DDH         LINE#         324
  C:10DDH         LINE#         325
  C:10DDH         LINE#         326
  -------         ENDPROC       ___TK_MODE_CARRY_FUNC
  -------         PROC          __TK_DATA_PROCESS
  C:08F2H         LINE#         333
  C:08F2H         LINE#         334
  C:08F2H         LINE#         335
  C:0904H         LINE#         338
  C:091DH         LINE#         339
  C:0920H         LINE#         341
  C:0936H         LINE#         342
  C:0939H         LINE#         347
  C:096BH         LINE#         348
  C:0978H         LINE#         349
  C:097BH         LINE#         350
  C:097EH         LINE#         351
  C:097EH         LINE#         352
  C:0980H         LINE#         353
  C:0983H         LINE#         354
  C:0983H         LINE#         356
  C:0988H         LINE#         357
  C:0999H         LINE#         358
  C:09AAH         LINE#         359
  C:09ADH         LINE#         363
  C:09C3H         LINE#         364
BL51 BANKED LINKER/LOCATER V6.22.4.0                                                  05/26/2025  16:52:39  PAGE 59


  C:09C6H         LINE#         365
  C:09D6H         LINE#         366
  C:09F6H         LINE#         369
  C:0A0DH         LINE#         370
  C:0A10H         LINE#         371
  C:0A20H         LINE#         372
  C:0A40H         LINE#         377
  C:0A40H         LINE#         378
  C:0A5EH         LINE#         380
  C:0A98H         LINE#         381
  C:0A98H         LINE#         382
  C:0A98H         LINE#         383
  C:0ACFH         LINE#         384
  C:0ADDH         LINE#         385
  C:0AF5H         LINE#         386
  C:0B02H         LINE#         387
  C:0B26H         LINE#         388
  C:0B4AH         LINE#         389
  C:0B4AH         LINE#         390
  C:0B4CH         LINE#         391
  C:0B59H         LINE#         392
  C:0B59H         LINE#         397
  C:0B7BH         LINE#         398
  C:0B7EH         LINE#         399
  C:0B8EH         LINE#         401
  C:0BA6H         LINE#         402
  C:0BA9H         LINE#         404
  C:0BC0H         LINE#         405
  C:0BC3H         LINE#         409
  C:0BE4H         LINE#         410
  C:0BE7H         LINE#         411
  C:0BF7H         LINE#         413
  C:0C0FH         LINE#         414
  C:0C12H         LINE#         416
  C:0C28H         LINE#         417
  C:0C2BH         LINE#         422
  C:0C30H         LINE#         423
  -------         ENDPROC       __TK_DATA_PROCESS
  -------         PROC          __TK_BUTTON_DECIDE
  C:18C5H         LINE#         430
  C:18C5H         LINE#         431
  C:18C5H         LINE#         432
  C:18D7H         LINE#         433
  C:18F5H         LINE#         434
  C:1927H         LINE#         435
  C:1934H         LINE#         436
  C:1939H         LINE#         437
  C:19AEH         LINE#         438
  C:19AEH         LINE#         439
  C:19BBH         LINE#         440
  C:19C9H         LINE#         442
  C:19DDH         LINE#         443
  C:19EAH         LINE#         444
  C:1A17H         LINE#         445
  C:1A3BH         LINE#         446
  C:1A69H         LINE#         447
  C:1A69H         LINE#         448
BL51 BANKED LINKER/LOCATER V6.22.4.0                                                  05/26/2025  16:52:39  PAGE 60


  C:1A6BH         LINE#         449
  C:1A78H         LINE#         450
  C:1A78H         LINE#         451
  C:1A7DH         LINE#         452
  -------         ENDPROC       __TK_BUTTON_DECIDE
  -------         PROC          __TK_BASELINE_UPDATE
  C:3026H         LINE#         459
  C:3026H         LINE#         460
  C:3026H         LINE#         461
  C:3035H         LINE#         462
  C:3046H         LINE#         463
  C:3057H         LINE#         464
  C:307BH         LINE#         465
  C:309FH         LINE#         466
  C:30A3H         LINE#         467
  -------         ENDPROC       __TK_BASELINE_UPDATE
  -------         PROC          __TK_BASELINE_INIT
  -------         DO            
  X:6018H         SYMBOL        init_flag
  -------         ENDDO         
  C:2BBCH         LINE#         474
  C:2BBCH         LINE#         475
  C:2BBCH         LINE#         478
  C:2BCBH         LINE#         479
  C:2BDBH         LINE#         480
  C:2BE4H         LINE#         481
  C:2C09H         LINE#         482
  C:2C09H         LINE#         483
  C:2C2EH         LINE#         484
  C:2C2EH         LINE#         485
  C:2C32H         LINE#         487
  C:2C3FH         LINE#         488
  C:2C42H         LINE#         489
  C:2C44H         LINE#         490
  C:2C4AH         LINE#         491
  C:2C4AH         LINE#         493
  -------         ENDPROC       __TK_BASELINE_INIT
  -------         PROC          __TK_LONG_KEY_CLEAR
  -------         DO            
  X:6019H         SYMBOL        __tk_long_cnt
  -------         ENDDO         
  C:30A4H         LINE#         501
  C:30A4H         LINE#         502
  C:30A4H         LINE#         505
  C:30B7H         LINE#         506
  C:30C5H         LINE#         507
  C:30DFH         LINE#         508
  C:30E3H         LINE#         509
  C:30EBH         LINE#         510
  C:30F3H         LINE#         511
  C:30FBH         LINE#         512
  C:30FDH         LINE#         513
  C:3100H         LINE#         514
  C:3117H         LINE#         515
  C:3119H         LINE#         516
  C:3119H         LINE#         517
  C:311AH         LINE#         518
BL51 BANKED LINKER/LOCATER V6.22.4.0                                                  05/26/2025  16:52:39  PAGE 61


  C:3121H         LINE#         519
  C:3121H         LINE#         520
  -------         ENDPROC       __TK_LONG_KEY_CLEAR
  -------         PROC          ___TK_LIB_I_ADJUST
  X:641BH         SYMBOL        i_ch
  X:641CH         SYMBOL        adjust_line
  -------         DO            
  X:601BH         SYMBOL        sta_finish
  X:601CH         SYMBOL        n_sta
  X:601DH         SYMBOL        p_sta
  X:601EH         SYMBOL        min_iset
  X:601FH         SYMBOL        min_diff
  D:0045H         SYMBOL        diff
  D:0049H         SYMBOL        temp
  -------         ENDDO         
  C:1A7EH         LINE#         528
  C:1A83H         LINE#         529
  C:1A83H         LINE#         537
  C:1A96H         LINE#         538
  C:1A9BH         LINE#         539
  C:1A9FH         LINE#         540
  C:1AA8H         LINE#         541
  C:1AABH         LINE#         542
  C:1AAEH         LINE#         545
  C:1AEBH         LINE#         546
  C:1B16H         LINE#         547
  C:1B2CH         LINE#         548
  C:1B2CH         LINE#         550
  C:1B43H         LINE#         551
  C:1B59H         LINE#         552
  C:1B5CH         LINE#         553
  C:1B5EH         LINE#         555
  C:1B71H         LINE#         557
  C:1B8DH         LINE#         558
  C:1BA0H         LINE#         559
  C:1BA3H         LINE#         560
  C:1BA3H         LINE#         561
  C:1BA5H         LINE#         563
  C:1BC1H         LINE#         564
  C:1BD4H         LINE#         565
  C:1BDAH         LINE#         566
  C:1BDAH         LINE#         567
  C:1BDAH         LINE#         568
  C:1BDAH         LINE#         569
  C:1BE8H         LINE#         570
  C:1BECH         LINE#         571
  C:1BEEH         LINE#         572
  C:1BF3H         LINE#         573
  C:1BF3H         LINE#         575
  C:1BFBH         LINE#         576
  C:1C14H         LINE#         577
  C:1C1CH         LINE#         578
  C:1C22H         LINE#         579
  C:1C27H         LINE#         580
  C:1C29H         LINE#         581
  C:1C2DH         LINE#         582
  C:1C30H         LINE#         583
BL51 BANKED LINKER/LOCATER V6.22.4.0                                                  05/26/2025  16:52:39  PAGE 62


  C:1C30H         LINE#         585
  C:1C32H         LINE#         586
  -------         ENDPROC       ___TK_LIB_I_ADJUST
  -------         PROC          __TK_I_SOURCE_ADJUST
  -------         DO            
  X:641AH         SYMBOL        result
  -------         ENDDO         
  C:333FH         LINE#         593
  C:333FH         LINE#         594
  C:333FH         LINE#         595
  C:3344H         LINE#         597
  C:335DH         LINE#         598
  C:335FH         LINE#         600
  C:3364H         LINE#         601
  C:3367H         LINE#         602
  C:336DH         LINE#         603
  C:336DH         LINE#         605
  C:3379H         LINE#         606
  C:337CH         LINE#         607
  C:337FH         LINE#         608
  C:337FH         LINE#         609
  C:337FH         LINE#         611
  C:3396H         LINE#         612
  C:3398H         LINE#         613
  C:339BH         LINE#         614
  C:339BH         LINE#         615
  C:33A0H         LINE#         616
  C:33A0H         LINE#         617
  -------         ENDPROC       __TK_I_SOURCE_ADJUST
  -------         PROC          ___TK_SET_NEXT_CH
  D:0007H         SYMBOL        kick_type
  C:2F1FH         LINE#         625
  C:2F1FH         LINE#         626
  C:2F1FH         LINE#         627
  C:2F22H         LINE#         629
  C:2F40H         LINE#         630
  C:2F46H         LINE#         631
  C:2F4AH         LINE#         632
  C:2F4EH         LINE#         633
  C:2F52H         LINE#         634
  C:2F56H         LINE#         636
  C:2F70H         LINE#         638
  C:2F80H         LINE#         639
  C:2F80H         LINE#         640
  C:2F82H         LINE#         642
  C:2F9CH         LINE#         643
  C:2FA2H         LINE#         644
  C:2FA2H         LINE#         645
  -------         ENDPROC       ___TK_SET_NEXT_CH
  -------         PROC          __TK_LIB_INIT
  -------         DO            
  X:654AH         SYMBOL        i
  -------         ENDDO         
  C:2B21H         LINE#         652
  C:2B21H         LINE#         653
  C:2B21H         LINE#         655
  C:2B69H         LINE#         656
BL51 BANKED LINKER/LOCATER V6.22.4.0                                                  05/26/2025  16:52:39  PAGE 63


  C:2B77H         LINE#         658
  C:2B7AH         LINE#         659
  C:2B82H         LINE#         660
  C:2B84H         LINE#         661
  C:2B86H         LINE#         662
  C:2B8EH         LINE#         663
  C:2B96H         LINE#         664
  C:2B9EH         LINE#         665
  C:2BB4H         LINE#         666
  C:2BB7H         LINE#         667
  -------         ENDPROC       __TK_LIB_INIT
  -------         PROC          __TK_HANDLER
  C:3122H         LINE#         675
  C:3122H         LINE#         676
  C:3122H         LINE#         677
  C:3127H         LINE#         678
  C:312BH         LINE#         679
  C:3152H         LINE#         682
  C:3155H         LINE#         683
  C:315CH         LINE#         684
  C:315EH         LINE#         685
  C:3161H         LINE#         686
  C:3161H         LINE#         687
  C:3164H         LINE#         688
  C:3164H         LINE#         689
  C:3164H         LINE#         690
  C:3166H         LINE#         691
  C:3172H         LINE#         692
  C:3182H         LINE#         693
  C:3185H         LINE#         694
  C:318AH         LINE#         696
  C:318DH         LINE#         697
  C:318DH         LINE#         699
  C:3190H         LINE#         700
  C:3190H         LINE#         701
  C:3191H         LINE#         702
  C:3196H         LINE#         703
  C:3196H         LINE#         704
  C:3196H         LINE#         705
  -------         ENDPROC       __TK_HANDLER
  -------         PROC          __TK_MS_HANDLER
  C:3D81H         LINE#         712
  C:3D81H         LINE#         713
  C:3D81H         LINE#         714
  C:3D83H         LINE#         716
  -------         ENDPROC       __TK_MS_HANDLER
  -------         PROC          __TK_SCAN
  C:3A97H         LINE#         724
  C:3A97H         LINE#         725
  C:3A97H         LINE#         727
  C:3A9CH         LINE#         730
  C:3AA8H         LINE#         735
  C:3AABH         LINE#         739
  C:3AAEH         LINE#         740
  C:3AB3H         LINE#         741
  C:3AB6H         LINE#         742
  C:3AB6H         LINE#         743
BL51 BANKED LINKER/LOCATER V6.22.4.0                                                  05/26/2025  16:52:39  PAGE 64


  -------         ENDPROC       __TK_SCAN
  -------         ENDMOD        TK_LIB

  -------         MODULE        ?C?COPY
  C:0130H         PUBLIC        ?C?COPY
  -------         ENDMOD        ?C?COPY

  -------         MODULE        ?C?CLDPTR
  C:0156H         PUBLIC        ?C?CLDPTR
  -------         ENDMOD        ?C?CLDPTR

  -------         MODULE        ?C?CLDOPTR
  C:016FH         PUBLIC        ?C?CLDOPTR
  -------         ENDMOD        ?C?CLDOPTR

  -------         MODULE        ?C?CILDOPTR
  C:019CH         PUBLIC        ?C?CILDOPTR
  -------         ENDMOD        ?C?CILDOPTR

  -------         MODULE        ?C?CSTPTR
  C:01CFH         PUBLIC        ?C?CSTPTR
  -------         ENDMOD        ?C?CSTPTR

  -------         MODULE        ?C?CSTOPTR
  C:01E1H         PUBLIC        ?C?CSTOPTR
  -------         ENDMOD        ?C?CSTOPTR

  -------         MODULE        ?C?IMUL
  C:0203H         PUBLIC        ?C?IMUL
  -------         ENDMOD        ?C?IMUL

  -------         MODULE        ?C?UIDIV
  C:0215H         PUBLIC        ?C?UIDIV
  -------         ENDMOD        ?C?UIDIV

  -------         MODULE        ?C?IILDX
  C:026AH         PUBLIC        ?C?IILDX
  -------         ENDMOD        ?C?IILDX

  -------         MODULE        ?C?LADD
  C:0280H         PUBLIC        ?C?LADD
  -------         ENDMOD        ?C?LADD

  -------         MODULE        ?C?LSUB
  C:028DH         PUBLIC        ?C?LSUB
  -------         ENDMOD        ?C?LSUB

  -------         MODULE        ?C?LMUL
  C:029BH         PUBLIC        ?C?LMUL
  -------         ENDMOD        ?C?LMUL

  -------         MODULE        ?C?ULDIV
  C:0326H         PUBLIC        ?C?ULDIV
  -------         ENDMOD        ?C?ULDIV

  -------         MODULE        ?C?LNOT
  C:03B8H         PUBLIC        ?C?LNOT
BL51 BANKED LINKER/LOCATER V6.22.4.0                                                  05/26/2025  16:52:39  PAGE 65


  -------         ENDMOD        ?C?LNOT

  -------         MODULE        ?C?LNEG
  C:03C5H         PUBLIC        ?C?LNEG
  -------         ENDMOD        ?C?LNEG

  -------         MODULE        ?C?SLCMP
  C:03D3H         PUBLIC        ?C?SLCMP
  -------         ENDMOD        ?C?SLCMP

  -------         MODULE        ?C?ULCMP
  C:03E9H         PUBLIC        ?C?ULCMP
  -------         ENDMOD        ?C?ULCMP

  -------         MODULE        ?C?ULSHR
  C:03FAH         PUBLIC        ?C?ULSHR
  -------         ENDMOD        ?C?ULSHR

  -------         MODULE        ?C?LSHL
  C:040DH         PUBLIC        ?C?LSHL
  -------         ENDMOD        ?C?LSHL

  -------         MODULE        ?C?LLDXDATA
  C:0420H         PUBLIC        ?C?LLDXDATA
  -------         ENDMOD        ?C?LLDXDATA

  -------         MODULE        ?C?LLDCODE
  C:042CH         PUBLIC        ?C?LLDCODE
  -------         ENDMOD        ?C?LLDCODE

  -------         MODULE        ?C?LLDXDATA0
  C:043CH         PUBLIC        ?C?LLDXDATA0
  -------         ENDMOD        ?C?LLDXDATA0

  -------         MODULE        ?C?LSTXDATA
  C:0448H         PUBLIC        ?C?LSTXDATA
  -------         ENDMOD        ?C?LSTXDATA

  -------         MODULE        ?C?LSTKXDATA
  C:0454H         PUBLIC        ?C?LSTKXDATA
  -------         ENDMOD        ?C?LSTKXDATA

  -------         MODULE        ?C?OFFXADD
  C:0485H         PUBLIC        ?C?OFFXADD
  -------         ENDMOD        ?C?OFFXADD

  -------         MODULE        ?C?PLDXDATA
  C:0491H         PUBLIC        ?C?PLDXDATA
  -------         ENDMOD        ?C?PLDXDATA

  -------         MODULE        ?C?PLDIXDATA
  C:049AH         PUBLIC        ?C?PLDIXDATA
  -------         ENDMOD        ?C?PLDIXDATA

  -------         MODULE        ?C?PSTXDATA
  C:04B1H         PUBLIC        ?C?PSTXDATA
  -------         ENDMOD        ?C?PSTXDATA
BL51 BANKED LINKER/LOCATER V6.22.4.0                                                  05/26/2025  16:52:39  PAGE 66



  -------         MODULE        ?C?PLDOPTR
  C:04BAH         PUBLIC        ?C?PLDOPTR
  -------         ENDMOD        ?C?PLDOPTR

  -------         MODULE        ?C?CCASE
  C:04EAH         PUBLIC        ?C?CCASE
  -------         ENDMOD        ?C?CCASE

  -------         MODULE        ?C?ICALL
  C:0510H         PUBLIC        ?C?ICALL
  C:0514H         PUBLIC        ?C?ICALL2
  -------         ENDMOD        ?C?ICALL

  -------         MODULE        ?C?LIMUL
  C:0516H         PUBLIC        ?C?LIMUL
  -------         ENDMOD        ?C?LIMUL

  -------         MODULE        PRINTF
  X:63F1H         PUBLIC        ?_PRINTF517?BYTE
  X:63F1H         PUBLIC        ?_PRINTF?BYTE
  X:63F1H         PUBLIC        ?_SPRINTF517?BYTE
  X:63F1H         PUBLIC        ?_SPRINTF?BYTE
  C:05F8H         PUBLIC        _PRINTF
  C:05F8H         PUBLIC        _PRINTF517
  C:05F2H         PUBLIC        _SPRINTF
  C:05F2H         PUBLIC        _SPRINTF517
  -------         ENDMOD        PRINTF

  -------         MODULE        ?C?MEMSET
  C:0543H         PUBLIC        ?C?MEMSET
  -------         ENDMOD        ?C?MEMSET

  -------         MODULE        ?C?PLDIDATA
  C:056FH         PUBLIC        ?C?PLDIDATA
  -------         ENDMOD        ?C?PLDIDATA

  -------         MODULE        ?C?PLDPDATA
  C:0578H         PUBLIC        ?C?PLDPDATA
  -------         ENDMOD        ?C?PLDPDATA

  -------         MODULE        ?C?PLDCODE
  C:0581H         PUBLIC        ?C?PLDCODE
  -------         ENDMOD        ?C?PLDCODE

*** WARNING L16: UNCALLED SEGMENT, IGNORED FOR OVERLAY PROCESS
    SEGMENT: ?PR?TK_PARAM_INIT?TK_SET

*** WARNING L16: UNCALLED SEGMENT, IGNORED FOR OVERLAY PROCESS
    SEGMENT: ?PR?P03_OUTPUT_CONFIG?MY_GPIO

*** WARNING L16: UNCALLED SEGMENT, IGNORED FOR OVERLAY PROCESS
    SEGMENT: ?PR?P23_INPUT_CONFIG?MY_GPIO

*** WARNING L16: UNCALLED SEGMENT, IGNORED FOR OVERLAY PROCESS
    SEGMENT: ?PR?UART0_SCAN_HANDLE?UART0

BL51 BANKED LINKER/LOCATER V6.22.4.0                                                  05/26/2025  16:52:39  PAGE 67


*** WARNING L16: UNCALLED SEGMENT, IGNORED FOR OVERLAY PROCESS
    SEGMENT: ?PR?AIP1302_UPDATE_ALL_DATA?AIP1302

*** WARNING L16: UNCALLED SEGMENT, IGNORED FOR OVERLAY PROCESS
    SEGMENT: ?PR?_KEY_DRIVER_SCAN?KEY_DRIVER

*** WARNING L16: UNCALLED SEGMENT, IGNORED FOR OVERLAY PROCESS
    SEGMENT: ?PR?PIN_LEVEL_SCAN?PIN_LEVEL_SCAN

*** WARNING L16: UNCALLED SEGMENT, IGNORED FOR OVERLAY PROCESS
    SEGMENT: ?PR?SPEED_SCAN?SPEED_SCAN

*** WARNING L16: UNCALLED SEGMENT, IGNORED FOR OVERLAY PROCESS
    SEGMENT: ?PR?ENGINE_SPEED_SCAN?ENGINE_SPEED_SCAN

*** WARNING L16: UNCALLED SEGMENT, IGNORED FOR OVERLAY PROCESS
    SEGMENT: ?PR?MILEAGE_SCAN?MILEAGE

*** WARNING L16: UNCALLED SEGMENT, IGNORED FOR OVERLAY PROCESS
    SEGMENT: ?PR?INSTRUCTION_SCAN?INSTRUCTION

*** WARNING L16: UNCALLED SEGMENT, IGNORED FOR OVERLAY PROCESS
    SEGMENT: ?PR?INSTRUCTION_HANDLE?INSTRUCTION

*** WARNING L16: UNCALLED SEGMENT, IGNORED FOR OVERLAY PROCESS
    SEGMENT: ?PR?AD_KEY_HANDLE?AD_KEY

*** WARNING L16: UNCALLED SEGMENT, IGNORED FOR OVERLAY PROCESS
    SEGMENT: ?PR?FUEL_CAPACITY_SCAN?FUEL_CAPACITY

*** WARNING L16: UNCALLED SEGMENT, IGNORED FOR OVERLAY PROCESS
    SEGMENT: ?PR?TEMP_OF_WATER_SCAN?TEMP_OF_WATER

*** WARNING L16: UNCALLED SEGMENT, IGNORED FOR OVERLAY PROCESS
    SEGMENT: ?PR?BATTERY_SCAN?BATTERY

*** WARNING L16: UNCALLED SEGMENT, IGNORED FOR OVERLAY PROCESS
    SEGMENT: ?PR?TOUCH_KEY_HANDLE?TOUCH_KEY

*** WARNING L16: UNCALLED SEGMENT, IGNORED FOR OVERLAY PROCESS
    SEGMENT: ?PR?__TK_MS_HANDLER?TK_LIB

Program Size: data=79.4 xdata=1357 code=15749
LINK/LOCATE RUN COMPLETE.  18 WARNING(S),  0 ERROR(S)
